Starting IronCScript...
Opening D:\MyCode\IronCScript\tests\scripts\test_scanf_with_printf.c...
File opened successfully.
Parsing script with ANTLR...
[DEBUG] visitProgram: found 1 statements
[DEBUG] visitProgram: processing statement
[DEBUG] visitStmt: entered
[DEBUG] visitStmt: found func_decl
[DEBUG] visitFunc_decl: entered
[DEBUG] visitFunc_decl: retType = int
[DEBUG] visitFunc_decl: name = main
[DEBUG] visitFunc_decl: found block
[DEBUG] visitStmt: entered
[DEBUG] visitStmt: found var_decl
[DEBUG] visitStmt: entered
[DEBUG] visitStmt: found expression statement
[DEBUG] visitStmt: entered
[DEBUG] visitStmt: found expression statement
[DEBUG] visitStmt: entered
[DEBUG] visitStmt: found return statement
[DEBUG] visitFunc_decl: bodyResult has value: 1
[DEBUG] visitFunc_decl: body = 0x1f86e413970
[DEBUG] visitFunc_decl: created funcDecl = 0x1f86e40ba60
[DEBUG] visitProgram: result has value: 1
[DEBUG] visitProgram: result type: PN3cse20NFunctionDeclarationE
[DEBUG] visitProgram: s is null: 0
[DEBUG] visitProgram: added statement to block
[DEBUG] visitProgram: block has 1 statements
Parsing completed. Program block: 0x1f86e413940
Performing semantic analysis...
[DEBUG] analyzeBlock: processing 1 statements
[DEBUG] analyzeBlock: processing statement type: N3cse20NFunctionDeclarationE
[DEBUG] analyzeFunctionDeclaration: main
[DEBUG] analyzeFunctionDeclaration: analyzing 0 arguments
[DEBUG] analyzeFunctionDeclaration: analyzing body
[DEBUG] analyzeBlock: processing 4 statements
[DEBUG] analyzeBlock: processing statement type: N3cse20NVariableDeclarationE
[DEBUG] analyzeBlock: processing statement type: N3cse20NExpressionStatementE
[DEBUG] analyzeBlock: processing statement type: N3cse20NExpressionStatementE
[DEBUG] analyzeBlock: processing statement type: N3cse16NReturnStatementE
Semantic analysis completed successfully.
Generating intermediate code...
[DEBUG] analyzeFunctionDeclaration: main
Generated quads: 14
=== Quad List ===
FUNC   main
ASSIGN %d  t0
ADDRESS_OF x  t1
ASSIGN t1  rdx
ASSIGN t0  rcx
CALL scanf  t2
ASSIGN Input value: %d
  t3
ASSIGN x  rdx
ASSIGN t3  rcx
CALL printf  t4
ASSIGN 2  t5
MUL x t5 t6
RET   t6
ENDFUNC   main
=================
Generating code from IR...
Target platform: x86-64
Generating code from intermediate representation...
Processing quad: FUNC (opcode: 20)   main
Function main starts at offset 0
Processing quad: ASSIGN (opcode: 11) %d  t0
Local variable size for function main updated to: 8 bytes
Allocating new local variable t0 (type: Int) at offset 8
Processing quad: ADDRESS_OF (opcode: 37) x  t1
Local variable size for function main updated to: 16 bytes
Allocating new local variable t1 (type: Int) at offset 16
Local variable size for function main updated to: 24 bytes
Allocating new local variable x (type: Int) at offset 24
Processing quad: ASSIGN (opcode: 11) t1  rdx
Processing quad: ASSIGN (opcode: 11) t0  rcx
Processing quad: CALL (opcode: 15) scanf  t2
Local variable size for function main updated to: 32 bytes
Allocating new local variable t2 (type: Int) at offset 32
Processing quad: ASSIGN (opcode: 11) Input value: %d
  t3
Local variable size for function main updated to: 40 bytes
Allocating new local variable t3 (type: Int) at offset 40
Processing quad: ASSIGN (opcode: 11) x  rdx
Processing quad: ASSIGN (opcode: 11) t3  rcx
Processing quad: CALL (opcode: 15) printf  t4
Local variable size for function main updated to: 48 bytes
Allocating new local variable t4 (type: Int) at offset 48
Processing quad: ASSIGN (opcode: 11) 2  t5
Local variable size for function main updated to: 56 bytes
Allocating new local variable t5 (type: Int) at offset 56
Processing quad: MUL (opcode: 2) x t5 t6
Local variable size for function main updated to: 64 bytes
Allocating new local variable t6 (type: Int) at offset 64
Processing quad: RET (opcode: 17)   t6
Processing quad: ENDFUNC (opcode: 21)   main
Updated stack allocation for function main to 104 bytes
Updated stack deallocation for function main at position 189 to 104 bytes
Updated stack allocation for function main to 104 bytes (including array space)
Updated stack deallocation for function main at position 189 to 104 bytes (including array space)
Code generation completed. Total code size: 198 bytes
formatCode: codeSize=198, dataSize=32
  RIP: instrPos=17, dataOffset=0, instrLen=7, calculated_offset=0xae
  RIP: instrPos=87, dataOffset=8, instrLen=7, calculated_offset=0x70
Formatted code size: 230 bytes
Disassembling code (230 bytes):
00000000: e8 01 00 00 00                               call	6
00000005: c3                                           ret	
00000006: 55                                           push	rbp
00000007: 48 89 e5                                     mov	rbp, rsp
0000000a: 48 81 ec 68 00 00 00                         sub	rsp, 0x68
00000011: 48 8d 05 ae 00 00 00                         lea	rax, [rip + 0xae]
00000018: 48 89 85 f8 ff ff ff                         mov	qword ptr [rbp - 8], rax
0000001f: 48 89 e8                                     mov	rax, rbp
00000022: 48 81 c0 e8 ff ff ff                         add	rax, -0x18
00000029: 48 89 85 f0 ff ff ff                         mov	qword ptr [rbp - 0x10], rax
00000030: 48 8b 85 f0 ff ff ff                         mov	rax, qword ptr [rbp - 0x10]
00000037: 48 89 c2                                     mov	rdx, rax
0000003a: 48 8b 85 f8 ff ff ff                         mov	rax, qword ptr [rbp - 8]
00000041: 48 89 c1                                     mov	rcx, rax
00000044: 90                                           nop	
00000045: 90                                           nop	
00000046: 90                                           nop	
00000047: 90                                           nop	
00000048: 90                                           nop	
00000049: 90                                           nop	
0000004a: 90                                           nop	
0000004b: 90                                           nop	
0000004c: 90                                           nop	
0000004d: 90                                           nop	
0000004e: 90                                           nop	
0000004f: 90                                           nop	
00000050: 48 89 85 e0 ff ff ff                         mov	qword ptr [rbp - 0x20], rax
00000057: 48 8d 05 70 00 00 00                         lea	rax, [rip + 0x70]
0000005e: 48 89 85 d8 ff ff ff                         mov	qword ptr [rbp - 0x28], rax
00000065: 48 8b 85 e8 ff ff ff                         mov	rax, qword ptr [rbp - 0x18]
0000006c: 48 89 c2                                     mov	rdx, rax
0000006f: 48 8b 85 d8 ff ff ff                         mov	rax, qword ptr [rbp - 0x28]
00000076: 48 89 c1                                     mov	rcx, rax
00000079: 90                                           nop	
0000007a: 90                                           nop	
0000007b: 90                                           nop	
0000007c: 90                                           nop	
0000007d: 90                                           nop	
0000007e: 90                                           nop	
0000007f: 90                                           nop	
00000080: 90                                           nop	
00000081: 90                                           nop	
00000082: 90                                           nop	
00000083: 90                                           nop	
00000084: 90                                           nop	
00000085: 48 89 85 d0 ff ff ff                         mov	qword ptr [rbp - 0x30], rax
0000008c: 48 b8 02 00 00 00 00 00 00 00                movabs	rax, 2
00000096: 48 89 85 c8 ff ff ff                         mov	qword ptr [rbp - 0x38], rax
0000009d: 48 8b 85 e8 ff ff ff                         mov	rax, qword ptr [rbp - 0x18]
000000a4: 48 8b 8d c8 ff ff ff                         mov	rcx, qword ptr [rbp - 0x38]
000000ab: 48 0f af c1                                  imul	rax, rcx
000000af: 48 89 85 c0 ff ff ff                         mov	qword ptr [rbp - 0x40], rax
000000b6: 48 8b 85 c0 ff ff ff                         mov	rax, qword ptr [rbp - 0x40]
000000bd: 48 81 c4 68 00 00 00                         add	rsp, 0x68
000000c4: 5d                                           pop	rbp
000000c5: c3                                           ret	
000000c6: 25 64 00 00 00                               and	eax, 0x64
000000cb: 00 00                                        add	byte ptr [rax], al
000000cd: 00 49 6e                                     add	byte ptr [rcx + 0x6e], cl
000000d0: 70 75                                        jo	0x147
000000d2: 74 20                                        je	0xf4
000000d4: 76 61                                        jbe	0x137
000000d6: 6c                                           insb	byte ptr [rdi], dx
000000d7: 75 65                                        jne	0x13e
000000d9: 3a 20                                        cmp	ah, byte ptr [rax]
000000db: 25 64 0a 00 00                               and	eax, 0xa64
000000e0: 00 00                                        add	byte ptr [rax], al
000000e2: 00 00                                        add	byte ptr [rax], al
000000e4: 00 00                                        add	byte ptr [rax], al
Code generation completed.
Running code...
Running code...
Found 2 function call(s) to fix
Fixed scanf call at offset: 44
Fixed printf call at offset: 79

Disassembling code after fix...
Code size: 230 bytes
----------------------------------------
00000000: e8 01 00 00 00 	call 6
00000005: c3 	ret 
00000006: 55 	push rbp
00000007: 48 89 e5 	mov rbp, rsp
0000000a: 48 81 ec 68 00 00 00 	sub rsp, 0x68
00000011: 48 8d 05 ae 00 00 00 	lea rax, [rip + 0xae]
00000018: 48 89 85 f8 ff ff ff 	mov qword ptr [rbp - 8], rax
0000001f: 48 89 e8 	mov rax, rbp
00000022: 48 81 c0 e8 ff ff ff 	add rax, -0x18
00000029: 48 89 85 f0 ff ff ff 	mov qword ptr [rbp - 0x10], rax
00000030: 48 8b 85 f0 ff ff ff 	mov rax, qword ptr [rbp - 0x10]
00000037: 48 89 c2 	mov rdx, rax
0000003a: 48 8b 85 f8 ff ff ff 	mov rax, qword ptr [rbp - 8]
00000041: 48 89 c1 	mov rcx, rax
00000044: 48 b8 30 d6 4a 16 ff 7f 00 00 	movabs rax, 0x7fff164ad630
0000004e: ff d0 	call rax
00000050: 48 89 85 e0 ff ff ff 	mov qword ptr [rbp - 0x20], rax
00000057: 48 8d 05 70 00 00 00 	lea rax, [rip + 0x70]
0000005e: 48 89 85 d8 ff ff ff 	mov qword ptr [rbp - 0x28], rax
00000065: 48 8b 85 e8 ff ff ff 	mov rax, qword ptr [rbp - 0x18]
0000006c: 48 89 c2 	mov rdx, rax
0000006f: 48 8b 85 d8 ff ff ff 	mov rax, qword ptr [rbp - 0x28]
00000076: 48 89 c1 	mov rcx, rax
00000079: 48 b8 80 d2 4a 16 ff 7f 00 00 	movabs rax, 0x7fff164ad280
00000083: ff d0 	call rax
00000085: 48 89 85 d0 ff ff ff 	mov qword ptr [rbp - 0x30], rax
0000008c: 48 b8 02 00 00 00 00 00 00 00 	movabs rax, 2
00000096: 48 89 85 c8 ff ff ff 	mov qword ptr [rbp - 0x38], rax
0000009d: 48 8b 85 e8 ff ff ff 	mov rax, qword ptr [rbp - 0x18]
000000a4: 48 8b 8d c8 ff ff ff 	mov rcx, qword ptr [rbp - 0x38]
000000ab: 48 0f af c1 	imul rax, rcx
000000af: 48 89 85 c0 ff ff ff 	mov qword ptr [rbp - 0x40], rax
000000b6: 48 8b 85 c0 ff ff ff 	mov rax, qword ptr [rbp - 0x40]
000000bd: 48 81 c4 68 00 00 00 	add rsp, 0x68
000000c4: 5d 	pop rbp
000000c5: c3 	ret 
000000c6: 25 64 00 00 00 	and eax, 0x64
000000cb: 00 00 	add byte ptr [rax], al
000000cd: 00 49 6e 	add byte ptr [rcx + 0x6e], cl
000000d0: 70 75 	jo 0x147
000000d2: 74 20 	je 0xf4
000000d4: 76 61 	jbe 0x137
000000d6: 6c 	insb byte ptr [rdi], dx
000000d7: 75 65 	jne 0x13e
000000d9: 3a 20 	cmp ah, byte ptr [rax]
000000db: 25 64 0a 00 00 	and eax, 0xa64
000000e0: 00 00 	add byte ptr [rax], al
000000e2: 00 00 	add byte ptr [rax], al
000000e4: 00 00 	add byte ptr [rax], al
----------------------------------------
Disassembly completed.
Input value: 42
Code execution completed.
main() return value: 84
Return value: 84
Code execution completed.
File closed.
