Starting IronCScript...
Opening D:\MyCode\IronCScript\tests\scripts\test_system_functions.c...
File opened successfully.
Parsing script with ANTLR...
[DEBUG] visitProgram: found 1 statements
[DEBUG] visitProgram: processing statement
[DEBUG] visitStmt: entered
[DEBUG] visitStmt: found func_decl
[DEBUG] visitFunc_decl: entered
[DEBUG] visitFunc_decl: retType = int
[DEBUG] visitFunc_decl: name = main
[DEBUG] visitFunc_decl: found block
[DEBUG] visitStmt: entered
[DEBUG] visitStmt: found var_decl
[DEBUG] visitStmt: entered
[DEBUG] visitStmt: found expression statement
[DEBUG] visitStmt: entered
[DEBUG] visitStmt: found if_stmt
[DEBUG] visitStmt: entered
[DEBUG] visitStmt: found expression statement
[DEBUG] visitStmt: entered
[DEBUG] visitStmt: found expression statement
[DEBUG] visitStmt: entered
[DEBUG] visitStmt: found expression statement
[DEBUG] visitStmt: entered
[DEBUG] visitStmt: found expression statement
[DEBUG] visitStmt: entered
[DEBUG] visitStmt: found return statement
[DEBUG] visitFunc_decl: bodyResult has value: 1
[DEBUG] visitFunc_decl: body = 0x232757783b0
[DEBUG] visitFunc_decl: created funcDecl = 0x23275761e30
[DEBUG] visitProgram: result has value: 1
[DEBUG] visitProgram: result type: PN3cse20NFunctionDeclarationE
[DEBUG] visitProgram: s is null: 0
[DEBUG] visitProgram: added statement to block
[DEBUG] visitProgram: block has 1 statements
Parsing completed. Program block: 0x23275778230
Performing semantic analysis...
[DEBUG] analyzeBlock: processing 1 statements
[DEBUG] analyzeBlock: processing statement type: N3cse20NFunctionDeclarationE
[DEBUG] analyzeFunctionDeclaration: main
[DEBUG] analyzeFunctionDeclaration: analyzing 0 arguments
[DEBUG] analyzeFunctionDeclaration: analyzing body
[DEBUG] analyzeBlock: processing 6 statements
[DEBUG] analyzeBlock: processing statement type: N3cse19NPointerDeclarationE
[DEBUG] analyzeBlock: processing statement type: N3cse20NExpressionStatementE
[DEBUG] analyzeBlock: processing statement type: N3cse12NIfStatementE
[DEBUG] analyzeBlock: processing 1 statements
[DEBUG] analyzeBlock: processing statement type: N3cse20NExpressionStatementE
[DEBUG] analyzeBlock: processing 1 statements
[DEBUG] analyzeBlock: processing statement type: N3cse20NExpressionStatementE
[DEBUG] analyzeBlock: processing statement type: N3cse20NExpressionStatementE
[DEBUG] analyzeBlock: processing statement type: N3cse20NExpressionStatementE
[DEBUG] analyzeBlock: processing statement type: N3cse16NReturnStatementE
Semantic analysis completed successfully.
Generating intermediate code...
[DEBUG] analyzeFunctionDeclaration: main
Generated quads: 24
=== Quad List ===
FUNC   main
ASSIGN PATH  t0
ASSIGN t0  rcx
CALL getenv  t1
ASSIGN t1  env_var
JMPF env_var  t2
ASSIGN PATH environment variable found
  t4
ASSIGN t4  rcx
CALL printf  t5
JMP   t3
LABEL   t2
ASSIGN PATH environment variable not found
  t6
ASSIGN t6  rcx
CALL printf  t7
LABEL   t3
ASSIGN Running system command...
  t8
ASSIGN t8  rcx
CALL printf  t9
ASSIGN echo Hello from system command  t10
ASSIGN t10  rcx
CALL system  t11
ASSIGN 0  t12
RET   t12
ENDFUNC   main
=================
Generating code from IR...
Target platform: x86-64
Generating code from intermediate representation...
Processing quad: FUNC (opcode: 20)   main
Function main starts at offset 0
Processing quad: ASSIGN (opcode: 11) PATH  t0
Local variable size for function main updated to: 8 bytes
Allocating new local variable t0 (type: Int) at offset 8
Processing quad: ASSIGN (opcode: 11) t0  rcx
Processing quad: CALL (opcode: 15) getenv  t1
Local variable size for function main updated to: 16 bytes
Allocating new local variable t1 (type: Int) at offset 16
Processing quad: ASSIGN (opcode: 11) t1  env_var
Local variable size for function main updated to: 24 bytes
Allocating new local variable env_var (type: Int) at offset 24
Processing quad: JMPF (opcode: 13) env_var  t2
Processing quad: ASSIGN (opcode: 11) PATH environment variable found
  t4
Local variable size for function main updated to: 32 bytes
Allocating new local variable t4 (type: Int) at offset 32
Processing quad: ASSIGN (opcode: 11) t4  rcx
Processing quad: CALL (opcode: 15) printf  t5
Local variable size for function main updated to: 40 bytes
Allocating new local variable t5 (type: Int) at offset 40
Processing quad: JMP (opcode: 12)   t3
Processing quad: LABEL (opcode: 19)   t2
Created label t2 at offset 132
Processing quad: ASSIGN (opcode: 11) PATH environment variable not found
  t6
Local variable size for function main updated to: 48 bytes
Allocating new local variable t6 (type: Int) at offset 48
Processing quad: ASSIGN (opcode: 11) t6  rcx
Processing quad: CALL (opcode: 15) printf  t7
Local variable size for function main updated to: 56 bytes
Allocating new local variable t7 (type: Int) at offset 56
Processing quad: LABEL (opcode: 19)   t3
Created label t3 at offset 175
Processing quad: ASSIGN (opcode: 11) Running system command...
  t8
Local variable size for function main updated to: 64 bytes
Allocating new local variable t8 (type: Int) at offset 64
Processing quad: ASSIGN (opcode: 11) t8  rcx
Processing quad: CALL (opcode: 15) printf  t9
Local variable size for function main updated to: 72 bytes
Allocating new local variable t9 (type: Int) at offset 72
Processing quad: ASSIGN (opcode: 11) echo Hello from system command  t10
Local variable size for function main updated to: 80 bytes
Allocating new local variable t10 (type: Int) at offset 80
Processing quad: ASSIGN (opcode: 11) t10  rcx
Processing quad: CALL (opcode: 15) system  t11
Local variable size for function main updated to: 88 bytes
Allocating new local variable t11 (type: Int) at offset 88
Processing quad: ASSIGN (opcode: 11) 0  t12
Local variable size for function main updated to: 96 bytes
Allocating new local variable t12 (type: Int) at offset 96
Processing quad: RET (opcode: 17)   t12
Processing quad: ENDFUNC (opcode: 21)   main
Updated stack allocation for function main to 136 bytes
Updated stack deallocation for function main at position 291 to 136 bytes
Updated stack allocation for function main to 136 bytes (including array space)
Updated stack deallocation for function main at position 291 to 136 bytes (including array space)
Code generation completed. Total code size: 300 bytes
formatCode: codeSize=300, dataSize=152
  RIP: instrPos=17, dataOffset=0, instrLen=7, calculated_offset=0x114
  RIP: instrPos=90, dataOffset=8, instrLen=7, calculated_offset=0xd3
  RIP: instrPos=138, dataOffset=48, instrLen=7, calculated_offset=0xcb
  RIP: instrPos=181, dataOffset=88, instrLen=7, calculated_offset=0xc8
  RIP: instrPos=224, dataOffset=120, instrLen=7, calculated_offset=0xbd
Formatted code size: 452 bytes
Disassembling code (452 bytes):
00000000: e8 01 00 00 00                               call	6
00000005: c3                                           ret	
00000006: 55                                           push	rbp
00000007: 48 89 e5                                     mov	rbp, rsp
0000000a: 48 81 ec 88 00 00 00                         sub	rsp, 0x88
00000011: 48 8d 05 14 01 00 00                         lea	rax, [rip + 0x114]
00000018: 48 89 85 f8 ff ff ff                         mov	qword ptr [rbp - 8], rax
0000001f: 48 8b 85 f8 ff ff ff                         mov	rax, qword ptr [rbp - 8]
00000026: 48 89 c1                                     mov	rcx, rax
00000029: 90                                           nop	
0000002a: 90                                           nop	
0000002b: 90                                           nop	
0000002c: 90                                           nop	
0000002d: 90                                           nop	
0000002e: 90                                           nop	
0000002f: 90                                           nop	
00000030: 90                                           nop	
00000031: 90                                           nop	
00000032: 90                                           nop	
00000033: 90                                           nop	
00000034: 90                                           nop	
00000035: 48 89 85 f0 ff ff ff                         mov	qword ptr [rbp - 0x10], rax
0000003c: 48 8b 85 f0 ff ff ff                         mov	rax, qword ptr [rbp - 0x10]
00000043: 48 89 85 e8 ff ff ff                         mov	qword ptr [rbp - 0x18], rax
0000004a: 48 8b 85 e8 ff ff ff                         mov	rax, qword ptr [rbp - 0x18]
00000051: 48 85 c0                                     test	rax, rax
00000054: 0f 84 30 00 00 00                            je	0x8a
0000005a: 48 8d 05 d3 00 00 00                         lea	rax, [rip + 0xd3]
00000061: 48 89 85 e0 ff ff ff                         mov	qword ptr [rbp - 0x20], rax
00000068: 48 8b 85 e0 ff ff ff                         mov	rax, qword ptr [rbp - 0x20]
0000006f: 48 89 c1                                     mov	rcx, rax
00000072: 90                                           nop	
00000073: 90                                           nop	
00000074: 90                                           nop	
00000075: 90                                           nop	
00000076: 90                                           nop	
00000077: 90                                           nop	
00000078: 90                                           nop	
00000079: 90                                           nop	
0000007a: 90                                           nop	
0000007b: 90                                           nop	
0000007c: 90                                           nop	
0000007d: 90                                           nop	
0000007e: 48 89 85 d8 ff ff ff                         mov	qword ptr [rbp - 0x28], rax
00000085: e9 2b 00 00 00                               jmp	0xb5
0000008a: 48 8d 05 cb 00 00 00                         lea	rax, [rip + 0xcb]
00000091: 48 89 85 d0 ff ff ff                         mov	qword ptr [rbp - 0x30], rax
00000098: 48 8b 85 d0 ff ff ff                         mov	rax, qword ptr [rbp - 0x30]
0000009f: 48 89 c1                                     mov	rcx, rax
000000a2: 90                                           nop	
000000a3: 90                                           nop	
000000a4: 90                                           nop	
000000a5: 90                                           nop	
000000a6: 90                                           nop	
000000a7: 90                                           nop	
000000a8: 90                                           nop	
000000a9: 90                                           nop	
000000aa: 90                                           nop	
000000ab: 90                                           nop	
000000ac: 90                                           nop	
000000ad: 90                                           nop	
000000ae: 48 89 85 c8 ff ff ff                         mov	qword ptr [rbp - 0x38], rax
000000b5: 48 8d 05 c8 00 00 00                         lea	rax, [rip + 0xc8]
000000bc: 48 89 85 c0 ff ff ff                         mov	qword ptr [rbp - 0x40], rax
000000c3: 48 8b 85 c0 ff ff ff                         mov	rax, qword ptr [rbp - 0x40]
000000ca: 48 89 c1                                     mov	rcx, rax
000000cd: 90                                           nop	
000000ce: 90                                           nop	
000000cf: 90                                           nop	
000000d0: 90                                           nop	
000000d1: 90                                           nop	
000000d2: 90                                           nop	
000000d3: 90                                           nop	
000000d4: 90                                           nop	
000000d5: 90                                           nop	
000000d6: 90                                           nop	
000000d7: 90                                           nop	
000000d8: 90                                           nop	
000000d9: 48 89 85 b8 ff ff ff                         mov	qword ptr [rbp - 0x48], rax
000000e0: 48 8d 05 bd 00 00 00                         lea	rax, [rip + 0xbd]
000000e7: 48 89 85 b0 ff ff ff                         mov	qword ptr [rbp - 0x50], rax
000000ee: 48 8b 85 b0 ff ff ff                         mov	rax, qword ptr [rbp - 0x50]
000000f5: 48 89 c1                                     mov	rcx, rax
000000f8: 90                                           nop	
000000f9: 90                                           nop	
000000fa: 90                                           nop	
000000fb: 90                                           nop	
000000fc: 90                                           nop	
000000fd: 90                                           nop	
000000fe: 90                                           nop	
000000ff: 90                                           nop	
00000100: 90                                           nop	
00000101: 90                                           nop	
00000102: 90                                           nop	
00000103: 90                                           nop	
00000104: 48 89 85 a8 ff ff ff                         mov	qword ptr [rbp - 0x58], rax
0000010b: 48 b8 00 00 00 00 00 00 00 00                movabs	rax, 0
00000115: 48 89 85 a0 ff ff ff                         mov	qword ptr [rbp - 0x60], rax
0000011c: 48 8b 85 a0 ff ff ff                         mov	rax, qword ptr [rbp - 0x60]
00000123: 48 81 c4 88 00 00 00                         add	rsp, 0x88
0000012a: 5d                                           pop	rbp
0000012b: c3                                           ret	
0000012c: 50                                           push	rax
0000012d: 41 54                                        push	r12
0000012f: 48 00 00                                     add	byte ptr [rax], al
00000132: 00 00                                        add	byte ptr [rax], al
00000134: 50                                           push	rax
00000135: 41 54                                        push	r12
00000137: 48 20 65 6e                                  and	byte ptr [rbp + 0x6e], spl
0000013b: 76 69                                        jbe	0x1a6
0000013d: 72 6f                                        jb	0x1ae
0000013f: 6e                                           outsb	dx, byte ptr [rsi]
00000140: 6d                                           insd	dword ptr [rdi], dx
00000141: 65 6e                                        outsb	dx, byte ptr gs:[rsi]
00000143: 74 20                                        je	0x165
00000145: 76 61                                        jbe	0x1a8
00000147: 72 69                                        jb	0x1b2
Code generation completed.
Running code...
Running code...
Found 5 function call(s) to fix
Fixed getenv call at offset: 29
Fixed printf call at offset: 72
Fixed printf call at offset: a2
Fixed printf call at offset: cd
Fixed system call at offset: f8

Disassembling code after fix...
Code size: 452 bytes
----------------------------------------
00000000: e8 01 00 00 00 	call 6
00000005: c3 	ret 
00000006: 55 	push rbp
00000007: 48 89 e5 	mov rbp, rsp
0000000a: 48 81 ec 88 00 00 00 	sub rsp, 0x88
00000011: 48 8d 05 14 01 00 00 	lea rax, [rip + 0x114]
00000018: 48 89 85 f8 ff ff ff 	mov qword ptr [rbp - 8], rax
0000001f: 48 8b 85 f8 ff ff ff 	mov rax, qword ptr [rbp - 8]
00000026: 48 89 c1 	mov rcx, rax
00000029: 48 b8 e0 34 49 16 ff 7f 00 00 	movabs rax, 0x7fff164934e0
00000033: ff d0 	call rax
00000035: 48 89 85 f0 ff ff ff 	mov qword ptr [rbp - 0x10], rax
0000003c: 48 8b 85 f0 ff ff ff 	mov rax, qword ptr [rbp - 0x10]
00000043: 48 89 85 e8 ff ff ff 	mov qword ptr [rbp - 0x18], rax
0000004a: 48 8b 85 e8 ff ff ff 	mov rax, qword ptr [rbp - 0x18]
00000051: 48 85 c0 	test rax, rax
00000054: 0f 84 30 00 00 00 	je 0x8a
0000005a: 48 8d 05 d3 00 00 00 	lea rax, [rip + 0xd3]
00000061: 48 89 85 e0 ff ff ff 	mov qword ptr [rbp - 0x20], rax
00000068: 48 8b 85 e0 ff ff ff 	mov rax, qword ptr [rbp - 0x20]
0000006f: 48 89 c1 	mov rcx, rax
00000072: 48 b8 80 d2 4a 16 ff 7f 00 00 	movabs rax, 0x7fff164ad280
0000007c: ff d0 	call rax
0000007e: 48 89 85 d8 ff ff ff 	mov qword ptr [rbp - 0x28], rax
00000085: e9 2b 00 00 00 	jmp 0xb5
0000008a: 48 8d 05 cb 00 00 00 	lea rax, [rip + 0xcb]
00000091: 48 89 85 d0 ff ff ff 	mov qword ptr [rbp - 0x30], rax
00000098: 48 8b 85 d0 ff ff ff 	mov rax, qword ptr [rbp - 0x30]
0000009f: 48 89 c1 	mov rcx, rax
000000a2: 48 b8 80 d2 4a 16 ff 7f 00 00 	movabs rax, 0x7fff164ad280
000000ac: ff d0 	call rax
000000ae: 48 89 85 c8 ff ff ff 	mov qword ptr [rbp - 0x38], rax
000000b5: 48 8d 05 c8 00 00 00 	lea rax, [rip + 0xc8]
000000bc: 48 89 85 c0 ff ff ff 	mov qword ptr [rbp - 0x40], rax
000000c3: 48 8b 85 c0 ff ff ff 	mov rax, qword ptr [rbp - 0x40]
000000ca: 48 89 c1 	mov rcx, rax
000000cd: 48 b8 80 d2 4a 16 ff 7f 00 00 	movabs rax, 0x7fff164ad280
000000d7: ff d0 	call rax
000000d9: 48 89 85 b8 ff ff ff 	mov qword ptr [rbp - 0x48], rax
000000e0: 48 8d 05 bd 00 00 00 	lea rax, [rip + 0xbd]
000000e7: 48 89 85 b0 ff ff ff 	mov qword ptr [rbp - 0x50], rax
000000ee: 48 8b 85 b0 ff ff ff 	mov rax, qword ptr [rbp - 0x50]
000000f5: 48 89 c1 	mov rcx, rax
000000f8: 48 b8 50 b7 47 16 ff 7f 00 00 	movabs rax, 0x7fff1647b750
00000102: ff d0 	call rax
00000104: 48 89 85 a8 ff ff ff 	mov qword ptr [rbp - 0x58], rax
0000010b: 48 b8 00 00 00 00 00 00 00 00 	movabs rax, 0
00000115: 48 89 85 a0 ff ff ff 	mov qword ptr [rbp - 0x60], rax
0000011c: 48 8b 85 a0 ff ff ff 	mov rax, qword ptr [rbp - 0x60]
00000123: 48 81 c4 88 00 00 00 	add rsp, 0x88
0000012a: 5d 	pop rbp
0000012b: c3 	ret 
0000012c: 50 	push rax
0000012d: 41 54 	push r12
0000012f: 48 00 00 	add byte ptr [rax], al
00000132: 00 00 	add byte ptr [rax], al
00000134: 50 	push rax
00000135: 41 54 	push r12
00000137: 48 20 65 6e 	and byte ptr [rbp + 0x6e], spl
0000013b: 76 69 	jbe 0x1a6
0000013d: 72 6f 	jb 0x1ae
0000013f: 6e 	outsb dx, byte ptr [rsi]
00000140: 6d 	insd dword ptr [rdi], dx
00000141: 65 6e 	outsb dx, byte ptr gs:[rsi]
00000143: 74 20 	je 0x165
00000145: 76 61 	jbe 0x1a8
00000147: 72 69 	jb 0x1b2
----------------------------------------
Disassembly completed.
Hello from system command
PATH environment variable found
Running system command...
Code execution completed.
main() return value: 0
Return value: 0
Code execution completed.
File closed.
