IronCScript v1.0.0
Platform: x86-64
Script: D:\MyCode\IronCScript\ironcscript-core\tests\scripts\09_stdlib/stdio/test_file_read.c

Executing script...
[EXEC] JIT compiling script...
[DEBUG] visitProgram: found 1 statements
[DEBUG] visitProgram: processing statement
[DEBUG] visitStmt: entered
[DEBUG] visitStmt: found func_decl
[DEBUG] visitFunc_decl: entered
[DEBUG] visitFunc_decl: retType = int
[DEBUG] visitFunc_decl: name = main
[DEBUG] visitFunc_decl: found block
[DEBUG] visitStmt: entered
[DEBUG] visitStmt: found var_decl
[DEBUG] visitStmt: entered
[DEBUG] visitStmt: found var_decl
[DEBUG] visitStmt: entered
[DEBUG] visitStmt: found var_decl
[DEBUG] visitStmt: entered
[DEBUG] visitStmt: found expression statement
[DEBUG] visitStmt: entered
[DEBUG] visitStmt: found if_stmt
[DEBUG] visitStmt: entered
[DEBUG] visitStmt: found expression statement
[DEBUG] visitStmt: entered
[DEBUG] visitStmt: found expression statement
[DEBUG] visitStmt: entered
[DEBUG] visitStmt: found expression statement
[DEBUG] visitStmt: entered
[DEBUG] visitStmt: found expression statement
[DEBUG] visitStmt: entered
[DEBUG] visitStmt: found expression statement
[DEBUG] visitStmt: entered
[DEBUG] visitStmt: found expression statement
[DEBUG] visitStmt: entered
[DEBUG] visitStmt: found return statement
[DEBUG] visitStmt: entered
[DEBUG] visitStmt: found expression statement
[DEBUG] visitStmt: entered
[DEBUG] visitStmt: found return statement
[DEBUG] visitFunc_decl: bodyResult has value: 1
[DEBUG] visitFunc_decl: body = 0x1fbd1b98df0
[DEBUG] visitFunc_decl: created funcDecl = 0x1fbd1b4da70
[DEBUG] visitProgram: result has value: 1
[DEBUG] visitProgram: s is null: 0
[DEBUG] visitProgram: added statement to block
[DEBUG] visitProgram: block has 1 statements
[DEBUG] analyzeBlock: processing 1 statements
[DEBUG] analyzeBlock: processing statement type: N3cse20NFunctionDeclarationE
[DEBUG] analyzeFunctionDeclaration: main
[DEBUG] analyzeFunctionDeclaration: analyzing 0 arguments
[DEBUG] analyzeFunctionDeclaration: analyzing body
[DEBUG] analyzeBlock: processing 5 statements
[DEBUG] analyzeBlock: processing statement type: N3cse19NPointerDeclarationE
[DEBUG] analyzeBlock: processing statement type: N3cse17NArrayDeclarationE
[DEBUG] analyzeBlock: processing statement type: N3cse20NVariableDeclarationE
[DEBUG] analyzeBlock: processing statement type: N3cse20NExpressionStatementE
[DEBUG] analyzeBlock: processing statement type: N3cse12NIfStatementE
[DEBUG] analyzeBlock: processing 7 statements
[DEBUG] analyzeBlock: processing statement type: N3cse20NExpressionStatementE
[DEBUG] inferType: array type, returning char*
[DEBUG] analyzeBlock: processing statement type: N3cse20NExpressionStatementE
[DEBUG] inferType: array type, returning char*
[DEBUG] analyzeBlock: processing statement type: N3cse20NExpressionStatementE
[DEBUG] analyzeBlock: processing statement type: N3cse20NExpressionStatementE
[DEBUG] analyzeBlock: processing statement type: N3cse20NExpressionStatementE
[DEBUG] analyzeBlock: processing statement type: N3cse20NExpressionStatementE
[DEBUG] analyzeBlock: processing statement type: N3cse16NReturnStatementE
[DEBUG] analyzeBlock: processing 2 statements
[DEBUG] analyzeBlock: processing statement type: N3cse20NExpressionStatementE
[DEBUG] analyzeBlock: processing statement type: N3cse16NReturnStatementE
[DEBUG] analyzeFunctionDeclaration: main
Generating code from intermediate representation...
Processing quad: FUNC (opcode: 20) int  main
Function main starts at offset 0
Processing quad: ARRAY (opcode: 34) 100 char buffer
Local variable size for function main updated to: 100 bytes
Array buffer allocated at offset 8 with 100 elements of size 1
Processing quad: ASSIGN (opcode: 11) test_file.txt  t0
Local variable size for function main updated to: 108 bytes
Allocating new local variable t0 (type: Pointer) at offset 108
Processing quad: ASSIGN (opcode: 11) r  t1
Local variable size for function main updated to: 116 bytes
Allocating new local variable t1 (type: Pointer) at offset 116
Processing quad: ASSIGN (opcode: 11) t0  param_0
[DEBUG] ASSIGN: result=param_0, arg1=t0, paramReg=1, xmmReg=-1
Processing quad: ASSIGN (opcode: 11) t1  param_1
[DEBUG] ASSIGN: result=param_1, arg1=t1, paramReg=2, xmmReg=-1
Processing quad: CALL (opcode: 15) fopen 2 t2
Local variable size for function main updated to: 124 bytes
Allocating new local variable t2 (type: Int) at offset 124
Processing quad: ASSIGN (opcode: 11) t2  fp
Local variable size for function main updated to: 132 bytes
Allocating new local variable fp (type: Int) at offset 132
Processing quad: JMPF (opcode: 13) fp  t3
Processing quad: ASSIGN (opcode: 11) %s  t5
Local variable size for function main updated to: 140 bytes
Allocating new local variable t5 (type: Pointer) at offset 140
Processing quad: ASSIGN (opcode: 11) fp  param_0
[DEBUG] ASSIGN: result=param_0, arg1=fp, paramReg=1, xmmReg=-1
Processing quad: ASSIGN (opcode: 11) t5  param_1
[DEBUG] ASSIGN: result=param_1, arg1=t5, paramReg=2, xmmReg=-1
Processing quad: ASSIGN (opcode: 11) buffer  param_2
[DEBUG] ASSIGN: result=param_2, arg1=buffer, paramReg=8, xmmReg=-1
Processing quad: CALL (opcode: 15) fscanf 3 t6
Local variable size for function main updated to: 148 bytes
Allocating new local variable t6 (type: Int) at offset 148
Processing quad: ASSIGN (opcode: 11) buffer=%s
  t7
Local variable size for function main updated to: 156 bytes
Allocating new local variable t7 (type: Pointer) at offset 156
Processing quad: ASSIGN (opcode: 11) t7  param_0
[DEBUG] ASSIGN: result=param_0, arg1=t7, paramReg=1, xmmReg=-1
Processing quad: ASSIGN (opcode: 11) buffer  param_1
[DEBUG] ASSIGN: result=param_1, arg1=buffer, paramReg=2, xmmReg=-1
Processing quad: CALL (opcode: 15) printf 2 t8
Local variable size for function main updated to: 164 bytes
Allocating new local variable t8 (type: Int) at offset 164
Processing quad: ASSIGN (opcode: 11) %d  t9
Local variable size for function main updated to: 172 bytes
Allocating new local variable t9 (type: Pointer) at offset 172
Processing quad: ADDRESS_OF (opcode: 37) value  t10
Local variable size for function main updated to: 180 bytes
Allocating new local variable t10 (type: Pointer) at offset 180
Local variable size for function main updated to: 188 bytes
Allocating new local variable value (type: Int) at offset 188
Processing quad: ASSIGN (opcode: 11) fp  param_0
[DEBUG] ASSIGN: result=param_0, arg1=fp, paramReg=1, xmmReg=-1
Processing quad: ASSIGN (opcode: 11) t9  param_1
[DEBUG] ASSIGN: result=param_1, arg1=t9, paramReg=2, xmmReg=-1
Processing quad: ASSIGN (opcode: 11) t10  param_2
[DEBUG] ASSIGN: result=param_2, arg1=t10, paramReg=8, xmmReg=-1
Processing quad: CALL (opcode: 15) fscanf 3 t11
Local variable size for function main updated to: 196 bytes
Allocating new local variable t11 (type: Int) at offset 196
Processing quad: ASSIGN (opcode: 11) value=%d
  t12
Local variable size for function main updated to: 204 bytes
Allocating new local variable t12 (type: Pointer) at offset 204
Processing quad: ASSIGN (opcode: 11) t12  param_0
[DEBUG] ASSIGN: result=param_0, arg1=t12, paramReg=1, xmmReg=-1
Processing quad: ASSIGN (opcode: 11) value  param_1
[DEBUG] ASSIGN: result=param_1, arg1=value, paramReg=2, xmmReg=-1
Processing quad: CALL (opcode: 15) printf 2 t13
Local variable size for function main updated to: 212 bytes
Allocating new local variable t13 (type: Int) at offset 212
Processing quad: ASSIGN (opcode: 11) fp  param_0
[DEBUG] ASSIGN: result=param_0, arg1=fp, paramReg=1, xmmReg=-1
Processing quad: CALL (opcode: 15) fclose 1 t14
Local variable size for function main updated to: 220 bytes
Allocating new local variable t14 (type: Int) at offset 220
Processing quad: ASSIGN (opcode: 11) File read successfully
  t15
Local variable size for function main updated to: 228 bytes
Allocating new local variable t15 (type: Pointer) at offset 228
Processing quad: ASSIGN (opcode: 11) t15  param_0
[DEBUG] ASSIGN: result=param_0, arg1=t15, paramReg=1, xmmReg=-1
Processing quad: CALL (opcode: 15) printf 1 t16
Local variable size for function main updated to: 236 bytes
Allocating new local variable t16 (type: Int) at offset 236
Processing quad: RET (opcode: 17)   0
Processing quad: JMP (opcode: 12)   t4
Processing quad: LABEL (opcode: 19)   t3
Created label t3 at offset 435
Created label: t3 at offset 435
Processing quad: ASSIGN (opcode: 11) Failed to open file for reading
  t17
Local variable size for function main updated to: 244 bytes
Allocating new local variable t17 (type: Pointer) at offset 244
Processing quad: ASSIGN (opcode: 11) t17  param_0
[DEBUG] ASSIGN: result=param_0, arg1=t17, paramReg=1, xmmReg=-1
Processing quad: CALL (opcode: 15) printf 1 t18
Local variable size for function main updated to: 252 bytes
Allocating new local variable t18 (type: Int) at offset 252
Processing quad: ASSIGN (opcode: 11) -1  t20
Local variable size for function main updated to: 260 bytes
Allocating new local variable t20 (type: Int) at offset 260
Processing quad: RET (opcode: 17)   t20
Processing quad: LABEL (opcode: 19)   t4
Created label t4 at offset 508
Created label: t4 at offset 508
Processing quad: ENDFUNC (opcode: 21)   main
Updated stack allocation for function main to 296 bytes
Updated stack deallocation for function main at position 421 to 296 bytes
Updated stack deallocation for function main at position 499 to 296 bytes
[updateFunctionCallOffsets] Resolving fopen -> 0x7fff164ac1a0
[updateFunctionCallOffsets] Replaced NOP with call to fopen at offset 59
[updateFunctionCallOffsets] Resolving fscanf -> 0x7fff164abdd0
[updateFunctionCallOffsets] Replaced NOP with call to fscanf at offset 146
[updateFunctionCallOffsets] Resolving printf -> 0x7ff6be637cec
[updateFunctionCallOffsets] Replaced NOP with call to printf at offset 198
[updateFunctionCallOffsets] Resolving fscanf -> 0x7fff164abdd0
[updateFunctionCallOffsets] Replaced NOP with call to fscanf at offset 275
[updateFunctionCallOffsets] Resolving printf -> 0x7ff6be637cec
[updateFunctionCallOffsets] Replaced NOP with call to printf at offset 325
[updateFunctionCallOffsets] Resolving fclose -> 0x7fff164b1510
[updateFunctionCallOffsets] Replaced NOP with call to fclose at offset 351
[updateFunctionCallOffsets] Resolving printf -> 0x7ff6be637cec
[updateFunctionCallOffsets] Replaced NOP with call to printf at offset 393
[updateFunctionCallOffsets] Resolving printf -> 0x7ff6be637cec
[updateFunctionCallOffsets] Replaced NOP with call to printf at offset 459
Code generation completed. Total code size: 508 bytes
Running code...
Allocated executable memory at: 0x1fbd14b0000
Code copied to executable memory successfully.
Found 8 function call(s) to fix
Fixed fopen call at offset: 3b
Fixed fscanf call at offset: 92
Fixed printf call at offset: c6
Fixed fscanf call at offset: 113
Fixed printf call at offset: 145
Fixed fclose call at offset: 15f
Fixed printf call at offset: 189
Fixed printf call at offset: 1cb

Disassembling code after fix...
Code size: 508 bytes
----------------------------------------
Initializing Capstone disassembler...
Architecture: 4, Mode: 8
Capstone initialized successfully. Handle: 2181066687840
Disassembling 92 instructions...
00000000: 55 	push rbp
00000001: 48 89 e5 	mov rbp, rsp
00000004: 48 81 ec 28 01 00 00 	sub rsp, 0x128
0000000b: 48 8d 05 00 00 00 00 	lea rax, [rip]
00000012: 48 89 85 94 ff ff ff 	mov qword ptr [rbp - 0x6c], rax
00000019: 48 8d 05 00 00 00 00 	lea rax, [rip]
00000020: 48 89 85 8c ff ff ff 	mov qword ptr [rbp - 0x74], rax
00000027: 48 8b 85 94 ff ff ff 	mov rax, qword ptr [rbp - 0x6c]
0000002e: 48 89 c1 	mov rcx, rax
00000031: 48 8b 85 8c ff ff ff 	mov rax, qword ptr [rbp - 0x74]
00000038: 48 89 c2 	mov rdx, rax
0000003b: 48 b8 a0 c1 4a 16 ff 7f 00 00 	movabs rax, 0x7fff164ac1a0
00000045: ff d0 	call rax
00000047: 89 85 84 ff ff ff 	mov dword ptr [rbp - 0x7c], eax
0000004d: 8b 85 84 ff ff ff 	mov eax, dword ptr [rbp - 0x7c]
00000053: 89 85 7c ff ff ff 	mov dword ptr [rbp - 0x84], eax
00000059: 8b 85 7c ff ff ff 	mov eax, dword ptr [rbp - 0x84]
0000005f: 48 85 c0 	test rax, rax
00000062: 0f 84 4b 01 00 00 	je 0x1b3
00000068: 48 8d 05 00 00 00 00 	lea rax, [rip]
0000006f: 48 89 85 74 ff ff ff 	mov qword ptr [rbp - 0x8c], rax
00000076: 8b 85 7c ff ff ff 	mov eax, dword ptr [rbp - 0x84]
0000007c: 89 c1 	mov ecx, eax
0000007e: 48 8b 85 74 ff ff ff 	mov rax, qword ptr [rbp - 0x8c]
00000085: 48 89 c2 	mov rdx, rax
00000088: 48 8d 85 f8 ff ff ff 	lea rax, [rbp - 8]
0000008f: 49 89 c0 	mov r8, rax
00000092: 48 b8 d0 bd 4a 16 ff 7f 00 00 	movabs rax, 0x7fff164abdd0
0000009c: ff d0 	call rax
0000009e: 89 85 6c ff ff ff 	mov dword ptr [rbp - 0x94], eax
000000a4: 48 8d 05 00 00 00 00 	lea rax, [rip]
000000ab: 48 89 85 64 ff ff ff 	mov qword ptr [rbp - 0x9c], rax
000000b2: 48 8b 85 64 ff ff ff 	mov rax, qword ptr [rbp - 0x9c]
000000b9: 48 89 c1 	mov rcx, rax
000000bc: 48 8d 85 f8 ff ff ff 	lea rax, [rbp - 8]
000000c3: 48 89 c2 	mov rdx, rax
000000c6: 48 b8 ec 7c 63 be f6 7f 00 00 	movabs rax, 0x7ff6be637cec
000000d0: ff d0 	call rax
000000d2: 89 85 5c ff ff ff 	mov dword ptr [rbp - 0xa4], eax
000000d8: 48 8d 05 00 00 00 00 	lea rax, [rip]
000000df: 48 89 85 54 ff ff ff 	mov qword ptr [rbp - 0xac], rax
000000e6: 48 89 e8 	mov rax, rbp
000000e9: 48 81 c0 44 ff ff ff 	add rax, -0xbc
000000f0: 48 89 85 4c ff ff ff 	mov qword ptr [rbp - 0xb4], rax
000000f7: 8b 85 7c ff ff ff 	mov eax, dword ptr [rbp - 0x84]
000000fd: 89 c1 	mov ecx, eax
000000ff: 48 8b 85 54 ff ff ff 	mov rax, qword ptr [rbp - 0xac]
00000106: 48 89 c2 	mov rdx, rax
00000109: 48 8b 85 4c ff ff ff 	mov rax, qword ptr [rbp - 0xb4]
00000110: 49 89 c0 	mov r8, rax
00000113: 48 b8 d0 bd 4a 16 ff 7f 00 00 	movabs rax, 0x7fff164abdd0
0000011d: ff d0 	call rax
0000011f: 89 85 3c ff ff ff 	mov dword ptr [rbp - 0xc4], eax
00000125: 48 8d 05 00 00 00 00 	lea rax, [rip]
0000012c: 48 89 85 34 ff ff ff 	mov qword ptr [rbp - 0xcc], rax
00000133: 48 8b 85 34 ff ff ff 	mov rax, qword ptr [rbp - 0xcc]
0000013a: 48 89 c1 	mov rcx, rax
0000013d: 8b 85 44 ff ff ff 	mov eax, dword ptr [rbp - 0xbc]
00000143: 89 c2 	mov edx, eax
00000145: 48 b8 ec 7c 63 be f6 7f 00 00 	movabs rax, 0x7ff6be637cec
0000014f: ff d0 	call rax
00000151: 89 85 2c ff ff ff 	mov dword ptr [rbp - 0xd4], eax
00000157: 8b 85 7c ff ff ff 	mov eax, dword ptr [rbp - 0x84]
0000015d: 89 c1 	mov ecx, eax
0000015f: 48 b8 10 15 4b 16 ff 7f 00 00 	movabs rax, 0x7fff164b1510
00000169: ff d0 	call rax
0000016b: 89 85 24 ff ff ff 	mov dword ptr [rbp - 0xdc], eax
00000171: 48 8d 05 00 00 00 00 	lea rax, [rip]
00000178: 48 89 85 1c ff ff ff 	mov qword ptr [rbp - 0xe4], rax
0000017f: 48 8b 85 1c ff ff ff 	mov rax, qword ptr [rbp - 0xe4]
00000186: 48 89 c1 	mov rcx, rax
00000189: 48 b8 ec 7c 63 be f6 7f 00 00 	movabs rax, 0x7ff6be637cec
00000193: ff d0 	call rax
00000195: 89 85 14 ff ff ff 	mov dword ptr [rbp - 0xec], eax
0000019b: 48 b8 00 00 00 00 00 00 00 00 	movabs rax, 0
000001a5: 48 81 c4 28 01 00 00 	add rsp, 0x128
000001ac: 5d 	pop rbp
000001ad: c3 	ret 
000001ae: e9 49 00 00 00 	jmp 0x1fc
000001b3: 48 8d 05 00 00 00 00 	lea rax, [rip]
000001ba: 48 89 85 0c ff ff ff 	mov qword ptr [rbp - 0xf4], rax
000001c1: 48 8b 85 0c ff ff ff 	mov rax, qword ptr [rbp - 0xf4]
000001c8: 48 89 c1 	mov rcx, rax
000001cb: 48 b8 ec 7c 63 be f6 7f 00 00 	movabs rax, 0x7ff6be637cec
000001d5: ff d0 	call rax
000001d7: 89 85 04 ff ff ff 	mov dword ptr [rbp - 0xfc], eax
000001dd: 48 b8 ff ff ff ff ff ff ff ff 	movabs rax, 0xffffffffffffffff
000001e7: 89 85 fc fe ff ff 	mov dword ptr [rbp - 0x104], eax
000001ed: 8b 85 fc fe ff ff 	mov eax, dword ptr [rbp - 0x104]
000001f3: 48 81 c4 28 01 00 00 	add rsp, 0x128
000001fa: 5d 	pop rbp
000001fb: c3 	ret 
Closing Capstone handle...
Capstone handle closed.
----------------------------------------
Disassembly completed.
Attempting to execute JIT code...
Executable memory address: 0x1fbd14b0000
Found main function at offset: 0
JIT function pointer: 0x1fbd14b0000
