Starting IronCScript...
Opening D:\MyCode\IronCScript\tests\scripts\test_math_functions.c...
File opened successfully.
Parsing script with ANTLR...
[DEBUG] visitProgram: found 1 statements
[DEBUG] visitProgram: processing statement
[DEBUG] visitStmt: entered
[DEBUG] visitStmt: found func_decl
[DEBUG] visitFunc_decl: entered
[DEBUG] visitFunc_decl: retType = int
[DEBUG] visitFunc_decl: name = main
[DEBUG] visitFunc_decl: found block
[DEBUG] visitStmt: entered
[DEBUG] visitStmt: found var_decl
[DEBUG] visitStmt: entered
[DEBUG] visitStmt: found var_decl
[DEBUG] visitStmt: entered
[DEBUG] visitStmt: found var_decl
[DEBUG] visitStmt: entered
[DEBUG] visitStmt: found var_decl
[DEBUG] visitStmt: entered
[DEBUG] visitStmt: found expression statement
[DEBUG] visitStmt: entered
[DEBUG] visitStmt: found var_decl
[DEBUG] visitStmt: entered
[DEBUG] visitStmt: found expression statement
[DEBUG] visitStmt: entered
[DEBUG] visitStmt: found var_decl
[DEBUG] visitStmt: entered
[DEBUG] visitStmt: found expression statement
[DEBUG] visitStmt: entered
[DEBUG] visitStmt: found var_decl
[DEBUG] visitStmt: entered
[DEBUG] visitStmt: found expression statement
[DEBUG] visitStmt: entered
[DEBUG] visitStmt: found var_decl
[DEBUG] visitStmt: entered
[DEBUG] visitStmt: found expression statement
[DEBUG] visitStmt: entered
[DEBUG] visitStmt: found var_decl
[DEBUG] visitStmt: entered
[DEBUG] visitStmt: found var_decl
[DEBUG] visitStmt: entered
[DEBUG] visitStmt: found expression statement
[DEBUG] visitStmt: entered
[DEBUG] visitStmt: found var_decl
[DEBUG] visitStmt: entered
[DEBUG] visitStmt: found var_decl
[DEBUG] visitStmt: entered
[DEBUG] visitStmt: found expression statement
[DEBUG] visitStmt: entered
[DEBUG] visitStmt: found return statement
[DEBUG] visitFunc_decl: bodyResult has value: 1
[DEBUG] visitFunc_decl: body = 0x1e92115bb40
[DEBUG] visitFunc_decl: created funcDecl = 0x1e92118bdd0
[DEBUG] visitProgram: result has value: 1
[DEBUG] visitProgram: result type: PN3cse20NFunctionDeclarationE
[DEBUG] visitProgram: s is null: 0
[DEBUG] visitProgram: added statement to block
[DEBUG] visitProgram: block has 1 statements
Parsing completed. Program block: 0x1e92115b720
Performing semantic analysis...
[DEBUG] analyzeBlock: processing 1 statements
[DEBUG] analyzeBlock: processing statement type: N3cse20NFunctionDeclarationE
[DEBUG] analyzeFunctionDeclaration: main
[DEBUG] analyzeFunctionDeclaration: analyzing 0 arguments
[DEBUG] analyzeFunctionDeclaration: analyzing body
[DEBUG] analyzeBlock: processing 20 statements
[DEBUG] analyzeBlock: processing statement type: N3cse20NVariableDeclarationE
[DEBUG] analyzeBlock: processing statement type: N3cse20NVariableDeclarationE
[DEBUG] analyzeBlock: processing statement type: N3cse20NVariableDeclarationE
[DEBUG] analyzeBlock: processing statement type: N3cse20NVariableDeclarationE
[DEBUG] analyzeBlock: processing statement type: N3cse20NExpressionStatementE
[DEBUG] analyzeBlock: processing statement type: N3cse20NVariableDeclarationE
[DEBUG] analyzeBlock: processing statement type: N3cse20NExpressionStatementE
[DEBUG] analyzeBlock: processing statement type: N3cse20NVariableDeclarationE
[DEBUG] analyzeBlock: processing statement type: N3cse20NExpressionStatementE
[DEBUG] analyzeBlock: processing statement type: N3cse20NVariableDeclarationE
[DEBUG] analyzeBlock: processing statement type: N3cse20NExpressionStatementE
[DEBUG] analyzeBlock: processing statement type: N3cse20NVariableDeclarationE
[DEBUG] analyzeBlock: processing statement type: N3cse20NExpressionStatementE
[DEBUG] analyzeBlock: processing statement type: N3cse20NVariableDeclarationE
[DEBUG] analyzeBlock: processing statement type: N3cse20NVariableDeclarationE
[DEBUG] analyzeBlock: processing statement type: N3cse20NExpressionStatementE
[DEBUG] analyzeBlock: processing statement type: N3cse20NVariableDeclarationE
[DEBUG] analyzeBlock: processing statement type: N3cse20NVariableDeclarationE
[DEBUG] analyzeBlock: processing statement type: N3cse20NExpressionStatementE
[DEBUG] analyzeBlock: processing statement type: N3cse16NReturnStatementE
Semantic analysis completed successfully.
Generating intermediate code...
[DEBUG] analyzeFunctionDeclaration: main
Generated quads: 87
=== Quad List ===
FUNC   main
ASSIGN 4.000000  t0
ASSIGN t0  x
ASSIGN 2.000000  t1
ASSIGN t1  y
ASSIGN 0.000000  t2
ASSIGN t2  angle
ASSIGN x  xmm0
CALL sqrt  t3
ASSIGN t3  sqrt_result
ASSIGN sqrt(%.1f) = %.1f
  t4
ASSIGN sqrt_result  r8
ASSIGN sqrt_result  xmm2
ASSIGN x  rdx
ASSIGN x  xmm1
ASSIGN t4  rcx
CALL printf  t5
ASSIGN y  xmm1
ASSIGN x  xmm0
CALL pow  t6
ASSIGN t6  pow_result
ASSIGN pow(%.1f, %.1f) = %.1f
  t7
ASSIGN pow_result  r9
ASSIGN pow_result  xmm3
ASSIGN y  r8
ASSIGN y  xmm2
ASSIGN x  rdx
ASSIGN x  xmm1
ASSIGN t7  rcx
CALL printf  t8
ASSIGN angle  xmm0
CALL sin  t9
ASSIGN t9  sin_result
ASSIGN sin(%.1f) = %.1f
  t10
ASSIGN sin_result  r8
ASSIGN sin_result  xmm2
ASSIGN angle  rdx
ASSIGN angle  xmm1
ASSIGN t10  rcx
CALL printf  t11
ASSIGN angle  xmm0
CALL cos  t12
ASSIGN t12  cos_result
ASSIGN cos(%.1f) = %.1f
  t13
ASSIGN cos_result  r8
ASSIGN cos_result  xmm2
ASSIGN angle  rdx
ASSIGN angle  xmm1
ASSIGN t13  rcx
CALL printf  t14
ASSIGN angle  xmm0
CALL tan  t15
ASSIGN t15  tan_result
ASSIGN tan(%.1f) = %.1f
  t16
ASSIGN tan_result  r8
ASSIGN tan_result  xmm2
ASSIGN angle  rdx
ASSIGN angle  xmm1
ASSIGN t16  rcx
CALL printf  t17
ASSIGN 5  t18
ASSIGN -5  t20
ASSIGN t20  int_value
ASSIGN int_value  rcx
CALL abs  t21
ASSIGN t21  abs_result
ASSIGN abs(%d) = %d
  t22
ASSIGN abs_result  r8
ASSIGN int_value  rdx
ASSIGN t22  rcx
CALL printf  t23
ASSIGN 3.140000  t24
ASSIGN -3.140000  t26
ASSIGN t26  double_value
ASSIGN double_value  xmm0
CALL fabs  t27
ASSIGN t27  fabs_result
ASSIGN fabs(%.2f) = %.2f
  t28
ASSIGN fabs_result  r8
ASSIGN fabs_result  xmm2
ASSIGN double_value  rdx
ASSIGN double_value  xmm1
ASSIGN t28  rcx
CALL printf  t29
ASSIGN 0  t30
RET   t30
ENDFUNC   main
=================
Generating code from IR...
Target platform: x86-64
Generating code from intermediate representation...
Dead code eliminated: ASSIGN 5  t18
Dead code eliminated: ASSIGN 3.140000  t24
Processing quad: FUNC (opcode: 20)   main
Function main starts at offset 0
Processing quad: ASSIGN (opcode: 11) 4.000000  t0
Local variable size for function main updated to: 8 bytes
Allocating new local variable t0 (type: Double) at offset 8
Processing quad: ASSIGN (opcode: 11) t0  x
Local variable size for function main updated to: 16 bytes
Allocating new local variable x (type: Double) at offset 16
Processing quad: ASSIGN (opcode: 11) 2.000000  t1
Local variable size for function main updated to: 24 bytes
Allocating new local variable t1 (type: Double) at offset 24
Processing quad: ASSIGN (opcode: 11) t1  y
Local variable size for function main updated to: 32 bytes
Allocating new local variable y (type: Double) at offset 32
Processing quad: ASSIGN (opcode: 11) 0.000000  t2
Local variable size for function main updated to: 40 bytes
Allocating new local variable t2 (type: Double) at offset 40
Processing quad: ASSIGN (opcode: 11) t2  angle
Local variable size for function main updated to: 48 bytes
Allocating new local variable angle (type: Double) at offset 48
Processing quad: ASSIGN (opcode: 11) x  xmm0
Processing quad: CALL (opcode: 15) sqrt  t3
Local variable size for function main updated to: 56 bytes
Allocating new local variable t3 (type: Double) at offset 56
Processing quad: ASSIGN (opcode: 11) t3  sqrt_result
Local variable size for function main updated to: 64 bytes
Allocating new local variable sqrt_result (type: Double) at offset 64
Processing quad: ASSIGN (opcode: 11) sqrt(%.1f) = %.1f
  t4
Local variable size for function main updated to: 72 bytes
Allocating new local variable t4 (type: Int) at offset 72
Processing quad: ASSIGN (opcode: 11) sqrt_result  r8
Processing quad: ASSIGN (opcode: 11) sqrt_result  xmm2
Processing quad: ASSIGN (opcode: 11) x  rdx
Processing quad: ASSIGN (opcode: 11) x  xmm1
Processing quad: ASSIGN (opcode: 11) t4  rcx
Processing quad: CALL (opcode: 15) printf  t5
Local variable size for function main updated to: 80 bytes
Allocating new local variable t5 (type: Int) at offset 80
Processing quad: ASSIGN (opcode: 11) y  xmm1
Processing quad: ASSIGN (opcode: 11) x  xmm0
Processing quad: CALL (opcode: 15) pow  t6
Local variable size for function main updated to: 88 bytes
Allocating new local variable t6 (type: Double) at offset 88
Processing quad: ASSIGN (opcode: 11) t6  pow_result
Local variable size for function main updated to: 96 bytes
Allocating new local variable pow_result (type: Double) at offset 96
Processing quad: ASSIGN (opcode: 11) pow(%.1f, %.1f) = %.1f
  t7
Local variable size for function main updated to: 104 bytes
Allocating new local variable t7 (type: Int) at offset 104
Processing quad: ASSIGN (opcode: 11) pow_result  r9
Processing quad: ASSIGN (opcode: 11) pow_result  xmm3
Processing quad: ASSIGN (opcode: 11) y  r8
Processing quad: ASSIGN (opcode: 11) y  xmm2
Processing quad: ASSIGN (opcode: 11) x  rdx
Processing quad: ASSIGN (opcode: 11) x  xmm1
Processing quad: ASSIGN (opcode: 11) t7  rcx
Processing quad: CALL (opcode: 15) printf  t8
Local variable size for function main updated to: 112 bytes
Allocating new local variable t8 (type: Int) at offset 112
Processing quad: ASSIGN (opcode: 11) angle  xmm0
Processing quad: CALL (opcode: 15) sin  t9
Local variable size for function main updated to: 120 bytes
Allocating new local variable t9 (type: Double) at offset 120
Processing quad: ASSIGN (opcode: 11) t9  sin_result
Local variable size for function main updated to: 128 bytes
Allocating new local variable sin_result (type: Double) at offset 128
Processing quad: ASSIGN (opcode: 11) sin(%.1f) = %.1f
  t10
Local variable size for function main updated to: 136 bytes
Allocating new local variable t10 (type: Int) at offset 136
Processing quad: ASSIGN (opcode: 11) sin_result  r8
Processing quad: ASSIGN (opcode: 11) sin_result  xmm2
Processing quad: ASSIGN (opcode: 11) angle  rdx
Processing quad: ASSIGN (opcode: 11) angle  xmm1
Processing quad: ASSIGN (opcode: 11) t10  rcx
Processing quad: CALL (opcode: 15) printf  t11
Local variable size for function main updated to: 144 bytes
Allocating new local variable t11 (type: Int) at offset 144
Processing quad: ASSIGN (opcode: 11) angle  xmm0
Processing quad: CALL (opcode: 15) cos  t12
Local variable size for function main updated to: 152 bytes
Allocating new local variable t12 (type: Double) at offset 152
Processing quad: ASSIGN (opcode: 11) t12  cos_result
Local variable size for function main updated to: 160 bytes
Allocating new local variable cos_result (type: Double) at offset 160
Processing quad: ASSIGN (opcode: 11) cos(%.1f) = %.1f
  t13
Local variable size for function main updated to: 168 bytes
Allocating new local variable t13 (type: Int) at offset 168
Processing quad: ASSIGN (opcode: 11) cos_result  r8
Processing quad: ASSIGN (opcode: 11) cos_result  xmm2
Processing quad: ASSIGN (opcode: 11) angle  rdx
Processing quad: ASSIGN (opcode: 11) angle  xmm1
Processing quad: ASSIGN (opcode: 11) t13  rcx
Processing quad: CALL (opcode: 15) printf  t14
Local variable size for function main updated to: 176 bytes
Allocating new local variable t14 (type: Int) at offset 176
Processing quad: ASSIGN (opcode: 11) angle  xmm0
Processing quad: CALL (opcode: 15) tan  t15
Local variable size for function main updated to: 184 bytes
Allocating new local variable t15 (type: Double) at offset 184
Processing quad: ASSIGN (opcode: 11) t15  tan_result
Local variable size for function main updated to: 192 bytes
Allocating new local variable tan_result (type: Double) at offset 192
Processing quad: ASSIGN (opcode: 11) tan(%.1f) = %.1f
  t16
Local variable size for function main updated to: 200 bytes
Allocating new local variable t16 (type: Int) at offset 200
Processing quad: ASSIGN (opcode: 11) tan_result  r8
Processing quad: ASSIGN (opcode: 11) tan_result  xmm2
Processing quad: ASSIGN (opcode: 11) angle  rdx
Processing quad: ASSIGN (opcode: 11) angle  xmm1
Processing quad: ASSIGN (opcode: 11) t16  rcx
Processing quad: CALL (opcode: 15) printf  t17
Local variable size for function main updated to: 208 bytes
Allocating new local variable t17 (type: Int) at offset 208
Processing quad: ASSIGN (opcode: 11) -5  t20
Local variable size for function main updated to: 216 bytes
Allocating new local variable t20 (type: Int) at offset 216
Processing quad: ASSIGN (opcode: 11) t20  int_value
Local variable size for function main updated to: 224 bytes
Allocating new local variable int_value (type: Int) at offset 224
Processing quad: ASSIGN (opcode: 11) int_value  rcx
Processing quad: CALL (opcode: 15) abs  t21
Local variable size for function main updated to: 232 bytes
Allocating new local variable t21 (type: Int) at offset 232
Processing quad: ASSIGN (opcode: 11) t21  abs_result
Local variable size for function main updated to: 240 bytes
Allocating new local variable abs_result (type: Int) at offset 240
Processing quad: ASSIGN (opcode: 11) abs(%d) = %d
  t22
Local variable size for function main updated to: 248 bytes
Allocating new local variable t22 (type: Int) at offset 248
Processing quad: ASSIGN (opcode: 11) abs_result  r8
Processing quad: ASSIGN (opcode: 11) int_value  rdx
Processing quad: ASSIGN (opcode: 11) t22  rcx
Processing quad: CALL (opcode: 15) printf  t23
Local variable size for function main updated to: 256 bytes
Allocating new local variable t23 (type: Int) at offset 256
Processing quad: ASSIGN (opcode: 11) -3.140000  t26
Local variable size for function main updated to: 264 bytes
Allocating new local variable t26 (type: Double) at offset 264
Processing quad: ASSIGN (opcode: 11) t26  double_value
Local variable size for function main updated to: 272 bytes
Allocating new local variable double_value (type: Double) at offset 272
Processing quad: ASSIGN (opcode: 11) double_value  xmm0
Processing quad: CALL (opcode: 15) fabs  t27
Local variable size for function main updated to: 280 bytes
Allocating new local variable t27 (type: Double) at offset 280
Processing quad: ASSIGN (opcode: 11) t27  fabs_result
Local variable size for function main updated to: 288 bytes
Allocating new local variable fabs_result (type: Double) at offset 288
Processing quad: ASSIGN (opcode: 11) fabs(%.2f) = %.2f
  t28
Local variable size for function main updated to: 296 bytes
Allocating new local variable t28 (type: Int) at offset 296
Processing quad: ASSIGN (opcode: 11) fabs_result  r8
Processing quad: ASSIGN (opcode: 11) fabs_result  xmm2
Processing quad: ASSIGN (opcode: 11) double_value  rdx
Processing quad: ASSIGN (opcode: 11) double_value  xmm1
Processing quad: ASSIGN (opcode: 11) t28  rcx
Processing quad: CALL (opcode: 15) printf  t29
Local variable size for function main updated to: 304 bytes
Allocating new local variable t29 (type: Int) at offset 304
Processing quad: ASSIGN (opcode: 11) 0  t30
Local variable size for function main updated to: 312 bytes
Allocating new local variable t30 (type: Int) at offset 312
Processing quad: RET (opcode: 17)   t30
Processing quad: ENDFUNC (opcode: 21)   main
Updated stack allocation for function main to 344 bytes
Updated stack deallocation for function main at position 1070 to 344 bytes
Updated stack allocation for function main to 344 bytes (including array space)
Updated stack deallocation for function main at position 1070 to 344 bytes (including array space)
Code generation completed. Total code size: 1079 bytes
formatCode: codeSize=1079, dataSize=192
  RIP: instrPos=17, dataOffset=0, instrLen=8, calculated_offset=0x41e
  RIP: instrPos=49, dataOffset=8, instrLen=8, calculated_offset=0x406
  RIP: instrPos=81, dataOffset=16, instrLen=8, calculated_offset=0x3ee
  RIP: instrPos=157, dataOffset=24, instrLen=7, calculated_offset=0x3ab
  RIP: instrPos=288, dataOffset=48, instrLen=7, calculated_offset=0x340
  RIP: instrPos=429, dataOffset=72, instrLen=7, calculated_offset=0x2cb
  RIP: instrPos=552, dataOffset=96, instrLen=7, calculated_offset=0x268
  RIP: instrPos=675, dataOffset=120, instrLen=7, calculated_offset=0x205
  RIP: instrPos=828, dataOffset=144, instrLen=7, calculated_offset=0x184
  RIP: instrPos=891, dataOffset=160, instrLen=8, calculated_offset=0x154
  RIP: instrPos=967, dataOffset=168, instrLen=7, calculated_offset=0x111
Formatted code size: 1271 bytes
Disassembling code (1271 bytes):
00000000: e8 01 00 00 00                               call	6
00000005: c3                                           ret	
00000006: 55                                           push	rbp
00000007: 48 89 e5                                     mov	rbp, rsp
0000000a: 48 81 ec 58 01 00 00                         sub	rsp, 0x158
00000011: f2 0f 10 05 1e 04 00 00                      movsd	xmm0, qword ptr [rip + 0x41e]
00000019: f2 0f 11 85 f8 ff ff ff                      movsd	qword ptr [rbp - 8], xmm0
00000021: f2 0f 10 85 f8 ff ff ff                      movsd	xmm0, qword ptr [rbp - 8]
00000029: f2 0f 11 85 f0 ff ff ff                      movsd	qword ptr [rbp - 0x10], xmm0
00000031: f2 0f 10 05 06 04 00 00                      movsd	xmm0, qword ptr [rip + 0x406]
00000039: f2 0f 11 85 e8 ff ff ff                      movsd	qword ptr [rbp - 0x18], xmm0
00000041: f2 0f 10 85 e8 ff ff ff                      movsd	xmm0, qword ptr [rbp - 0x18]
00000049: f2 0f 11 85 e0 ff ff ff                      movsd	qword ptr [rbp - 0x20], xmm0
00000051: f2 0f 10 05 ee 03 00 00                      movsd	xmm0, qword ptr [rip + 0x3ee]
00000059: f2 0f 11 85 d8 ff ff ff                      movsd	qword ptr [rbp - 0x28], xmm0
00000061: f2 0f 10 85 d8 ff ff ff                      movsd	xmm0, qword ptr [rbp - 0x28]
00000069: f2 0f 11 85 d0 ff ff ff                      movsd	qword ptr [rbp - 0x30], xmm0
00000071: f2 0f 10 85 f0 ff ff ff                      movsd	xmm0, qword ptr [rbp - 0x10]
00000079: 90                                           nop	
0000007a: 90                                           nop	
0000007b: 90                                           nop	
0000007c: 90                                           nop	
0000007d: 90                                           nop	
0000007e: 90                                           nop	
0000007f: 90                                           nop	
00000080: 90                                           nop	
00000081: 90                                           nop	
00000082: 90                                           nop	
00000083: 90                                           nop	
00000084: 90                                           nop	
00000085: f2 0f 11 85 c8 ff ff ff                      movsd	qword ptr [rbp - 0x38], xmm0
0000008d: f2 0f 10 85 c8 ff ff ff                      movsd	xmm0, qword ptr [rbp - 0x38]
00000095: f2 0f 11 85 c0 ff ff ff                      movsd	qword ptr [rbp - 0x40], xmm0
0000009d: 48 8d 05 ab 03 00 00                         lea	rax, [rip + 0x3ab]
000000a4: 48 89 85 b8 ff ff ff                         mov	qword ptr [rbp - 0x48], rax
000000ab: 48 8b 85 c0 ff ff ff                         mov	rax, qword ptr [rbp - 0x40]
000000b2: 49 89 c0                                     mov	r8, rax
000000b5: f2 0f 10 95 c0 ff ff ff                      movsd	xmm2, qword ptr [rbp - 0x40]
000000bd: 48 8b 85 f0 ff ff ff                         mov	rax, qword ptr [rbp - 0x10]
000000c4: 48 89 c2                                     mov	rdx, rax
000000c7: f2 0f 10 8d f0 ff ff ff                      movsd	xmm1, qword ptr [rbp - 0x10]
000000cf: 48 8b 85 b8 ff ff ff                         mov	rax, qword ptr [rbp - 0x48]
000000d6: 48 89 c1                                     mov	rcx, rax
000000d9: 90                                           nop	
000000da: 90                                           nop	
000000db: 90                                           nop	
000000dc: 90                                           nop	
000000dd: 90                                           nop	
000000de: 90                                           nop	
000000df: 90                                           nop	
000000e0: 90                                           nop	
000000e1: 90                                           nop	
000000e2: 90                                           nop	
000000e3: 90                                           nop	
000000e4: 90                                           nop	
000000e5: 48 89 85 b0 ff ff ff                         mov	qword ptr [rbp - 0x50], rax
000000ec: f2 0f 10 8d e0 ff ff ff                      movsd	xmm1, qword ptr [rbp - 0x20]
000000f4: f2 0f 10 85 f0 ff ff ff                      movsd	xmm0, qword ptr [rbp - 0x10]
000000fc: 90                                           nop	
000000fd: 90                                           nop	
000000fe: 90                                           nop	
000000ff: 90                                           nop	
00000100: 90                                           nop	
00000101: 90                                           nop	
00000102: 90                                           nop	
00000103: 90                                           nop	
00000104: 90                                           nop	
00000105: 90                                           nop	
00000106: 90                                           nop	
00000107: 90                                           nop	
00000108: f2 0f 11 85 a8 ff ff ff                      movsd	qword ptr [rbp - 0x58], xmm0
00000110: f2 0f 10 85 a8 ff ff ff                      movsd	xmm0, qword ptr [rbp - 0x58]
00000118: f2 0f 11 85 a0 ff ff ff                      movsd	qword ptr [rbp - 0x60], xmm0
00000120: 48 8d 05 40 03 00 00                         lea	rax, [rip + 0x340]
00000127: 48 89 85 98 ff ff ff                         mov	qword ptr [rbp - 0x68], rax
0000012e: 48 8b 85 a0 ff ff ff                         mov	rax, qword ptr [rbp - 0x60]
00000135: 49 89 c1                                     mov	r9, rax
00000138: f2 0f 10 9d a0 ff ff ff                      movsd	xmm3, qword ptr [rbp - 0x60]
00000140: 48 8b 85 e0 ff ff ff                         mov	rax, qword ptr [rbp - 0x20]
00000147: 49 89 c0                                     mov	r8, rax
0000014a: f2 0f 10 95 e0 ff ff ff                      movsd	xmm2, qword ptr [rbp - 0x20]
00000152: 48 8b 85 f0 ff ff ff                         mov	rax, qword ptr [rbp - 0x10]
00000159: 48 89 c2                                     mov	rdx, rax
0000015c: f2 0f 10 8d f0 ff ff ff                      movsd	xmm1, qword ptr [rbp - 0x10]
00000164: 48 8b 85 98 ff ff ff                         mov	rax, qword ptr [rbp - 0x68]
0000016b: 48 89 c1                                     mov	rcx, rax
0000016e: 90                                           nop	
0000016f: 90                                           nop	
00000170: 90                                           nop	
00000171: 90                                           nop	
00000172: 90                                           nop	
00000173: 90                                           nop	
00000174: 90                                           nop	
00000175: 90                                           nop	
00000176: 90                                           nop	
00000177: 90                                           nop	
00000178: 90                                           nop	
00000179: 90                                           nop	
0000017a: 48 89 85 90 ff ff ff                         mov	qword ptr [rbp - 0x70], rax
00000181: f2 0f 10 85 d0 ff ff ff                      movsd	xmm0, qword ptr [rbp - 0x30]
00000189: 90                                           nop	
0000018a: 90                                           nop	
0000018b: 90                                           nop	
0000018c: 90                                           nop	
0000018d: 90                                           nop	
0000018e: 90                                           nop	
0000018f: 90                                           nop	
00000190: 90                                           nop	
00000191: 90                                           nop	
00000192: 90                                           nop	
00000193: 90                                           nop	
00000194: 90                                           nop	
00000195: f2 0f 11 85 88 ff ff ff                      movsd	qword ptr [rbp - 0x78], xmm0
0000019d: f2 0f 10 85 88 ff ff ff                      movsd	xmm0, qword ptr [rbp - 0x78]
000001a5: f2 0f 11 85 80 ff ff ff                      movsd	qword ptr [rbp - 0x80], xmm0
000001ad: 48 8d 05 cb 02 00 00                         lea	rax, [rip + 0x2cb]
000001b4: 48 89 85 78 ff ff ff                         mov	qword ptr [rbp - 0x88], rax
000001bb: 48 8b 85 80 ff ff ff                         mov	rax, qword ptr [rbp - 0x80]
000001c2: 49 89 c0                                     mov	r8, rax
000001c5: f2 0f 10 95 80 ff ff ff                      movsd	xmm2, qword ptr [rbp - 0x80]
000001cd: 48 8b 85 d0 ff ff ff                         mov	rax, qword ptr [rbp - 0x30]
000001d4: 48 89 c2                                     mov	rdx, rax
000001d7: f2 0f 10 8d d0 ff ff ff                      movsd	xmm1, qword ptr [rbp - 0x30]
000001df: 48 8b 85 78 ff ff ff                         mov	rax, qword ptr [rbp - 0x88]
000001e6: 48 89 c1                                     mov	rcx, rax
000001e9: 90                                           nop	
000001ea: 90                                           nop	
000001eb: 90                                           nop	
000001ec: 90                                           nop	
000001ed: 90                                           nop	
000001ee: 90                                           nop	
000001ef: 90                                           nop	
000001f0: 90                                           nop	
000001f1: 90                                           nop	
000001f2: 90                                           nop	
000001f3: 90                                           nop	
000001f4: 90                                           nop	
000001f5: 48 89 85 70 ff ff ff                         mov	qword ptr [rbp - 0x90], rax
000001fc: f2 0f 10 85 d0 ff ff ff                      movsd	xmm0, qword ptr [rbp - 0x30]
00000204: 90                                           nop	
00000205: 90                                           nop	
00000206: 90                                           nop	
00000207: 90                                           nop	
00000208: 90                                           nop	
00000209: 90                                           nop	
0000020a: 90                                           nop	
0000020b: 90                                           nop	
0000020c: 90                                           nop	
0000020d: 90                                           nop	
0000020e: 90                                           nop	
0000020f: 90                                           nop	
00000210: f2 0f 11 85 68 ff ff ff                      movsd	qword ptr [rbp - 0x98], xmm0
00000218: f2 0f 10 85 68 ff ff ff                      movsd	xmm0, qword ptr [rbp - 0x98]
00000220: f2 0f 11 85 60 ff ff ff                      movsd	qword ptr [rbp - 0xa0], xmm0
00000228: 48 8d 05 68 02 00 00                         lea	rax, [rip + 0x268]
0000022f: 48 89 85 58 ff ff ff                         mov	qword ptr [rbp - 0xa8], rax
00000236: 48 8b 85 60 ff ff ff                         mov	rax, qword ptr [rbp - 0xa0]
0000023d: 49 89 c0                                     mov	r8, rax
00000240: f2 0f 10 95 60 ff ff ff                      movsd	xmm2, qword ptr [rbp - 0xa0]
00000248: 48 8b 85 d0 ff ff ff                         mov	rax, qword ptr [rbp - 0x30]
0000024f: 48 89 c2                                     mov	rdx, rax
00000252: f2 0f 10 8d d0 ff ff ff                      movsd	xmm1, qword ptr [rbp - 0x30]
0000025a: 48 8b 85 58 ff ff ff                         mov	rax, qword ptr [rbp - 0xa8]
00000261: 48 89 c1                                     mov	rcx, rax
00000264: 90                                           nop	
00000265: 90                                           nop	
00000266: 90                                           nop	
00000267: 90                                           nop	
00000268: 90                                           nop	
00000269: 90                                           nop	
0000026a: 90                                           nop	
0000026b: 90                                           nop	
0000026c: 90                                           nop	
0000026d: 90                                           nop	
0000026e: 90                                           nop	
0000026f: 90                                           nop	
00000270: 48 89 85 50 ff ff ff                         mov	qword ptr [rbp - 0xb0], rax
00000277: f2 0f 10 85 d0 ff ff ff                      movsd	xmm0, qword ptr [rbp - 0x30]
0000027f: 90                                           nop	
00000280: 90                                           nop	
00000281: 90                                           nop	
00000282: 90                                           nop	
00000283: 90                                           nop	
00000284: 90                                           nop	
00000285: 90                                           nop	
00000286: 90                                           nop	
00000287: 90                                           nop	
00000288: 90                                           nop	
00000289: 90                                           nop	
0000028a: 90                                           nop	
0000028b: f2 0f 11 85 48 ff ff ff                      movsd	qword ptr [rbp - 0xb8], xmm0
00000293: f2 0f 10 85 48 ff ff ff                      movsd	xmm0, qword ptr [rbp - 0xb8]
0000029b: f2 0f 11 85 40 ff ff ff                      movsd	qword ptr [rbp - 0xc0], xmm0
000002a3: 48 8d 05 05 02 00 00                         lea	rax, [rip + 0x205]
000002aa: 48 89 85 38 ff ff ff                         mov	qword ptr [rbp - 0xc8], rax
000002b1: 48 8b 85 40 ff ff ff                         mov	rax, qword ptr [rbp - 0xc0]
000002b8: 49 89 c0                                     mov	r8, rax
000002bb: f2 0f 10 95 40 ff ff ff                      movsd	xmm2, qword ptr [rbp - 0xc0]
000002c3: 48 8b 85 d0 ff ff ff                         mov	rax, qword ptr [rbp - 0x30]
000002ca: 48 89 c2                                     mov	rdx, rax
000002cd: f2 0f 10 8d d0 ff ff ff                      movsd	xmm1, qword ptr [rbp - 0x30]
000002d5: 48 8b 85 38 ff ff ff                         mov	rax, qword ptr [rbp - 0xc8]
000002dc: 48 89 c1                                     mov	rcx, rax
000002df: 90                                           nop	
000002e0: 90                                           nop	
000002e1: 90                                           nop	
000002e2: 90                                           nop	
000002e3: 90                                           nop	
000002e4: 90                                           nop	
000002e5: 90                                           nop	
000002e6: 90                                           nop	
000002e7: 90                                           nop	
000002e8: 90                                           nop	
000002e9: 90                                           nop	
000002ea: 90                                           nop	
000002eb: 48 89 85 30 ff ff ff                         mov	qword ptr [rbp - 0xd0], rax
000002f2: 48 b8 fb ff ff ff ff ff ff ff                movabs	rax, 0xfffffffffffffffb
000002fc: 48 89 85 28 ff ff ff                         mov	qword ptr [rbp - 0xd8], rax
00000303: 48 8b 85 28 ff ff ff                         mov	rax, qword ptr [rbp - 0xd8]
0000030a: 48 89 85 20 ff ff ff                         mov	qword ptr [rbp - 0xe0], rax
00000311: 48 8b 85 20 ff ff ff                         mov	rax, qword ptr [rbp - 0xe0]
00000318: 48 89 c1                                     mov	rcx, rax
0000031b: 90                                           nop	
0000031c: 90                                           nop	
0000031d: 90                                           nop	
0000031e: 90                                           nop	
0000031f: 90                                           nop	
00000320: 90                                           nop	
00000321: 90                                           nop	
00000322: 90                                           nop	
00000323: 90                                           nop	
00000324: 90                                           nop	
00000325: 90                                           nop	
00000326: 90                                           nop	
00000327: 48 89 85 18 ff ff ff                         mov	qword ptr [rbp - 0xe8], rax
0000032e: 48 8b 85 18 ff ff ff                         mov	rax, qword ptr [rbp - 0xe8]
00000335: 48 89 85 10 ff ff ff                         mov	qword ptr [rbp - 0xf0], rax
0000033c: 48 8d 05 84 01 00 00                         lea	rax, [rip + 0x184]
00000343: 48 89 85 08 ff ff ff                         mov	qword ptr [rbp - 0xf8], rax
0000034a: 48 8b 85 10 ff ff ff                         mov	rax, qword ptr [rbp - 0xf0]
00000351: 49 89 c0                                     mov	r8, rax
00000354: 48 8b 85 20 ff ff ff                         mov	rax, qword ptr [rbp - 0xe0]
0000035b: 48 89 c2                                     mov	rdx, rax
0000035e: 48 8b 85 08 ff ff ff                         mov	rax, qword ptr [rbp - 0xf8]
00000365: 48 89 c1                                     mov	rcx, rax
00000368: 90                                           nop	
00000369: 90                                           nop	
0000036a: 90                                           nop	
0000036b: 90                                           nop	
0000036c: 90                                           nop	
0000036d: 90                                           nop	
0000036e: 90                                           nop	
0000036f: 90                                           nop	
00000370: 90                                           nop	
00000371: 90                                           nop	
00000372: 90                                           nop	
00000373: 90                                           nop	
00000374: 48 89 85 00 ff ff ff                         mov	qword ptr [rbp - 0x100], rax
0000037b: f2 0f 10 05 54 01 00 00                      movsd	xmm0, qword ptr [rip + 0x154]
00000383: f2 0f 11 85 f8 fe ff ff                      movsd	qword ptr [rbp - 0x108], xmm0
0000038b: f2 0f 10 85 f8 fe ff ff                      movsd	xmm0, qword ptr [rbp - 0x108]
00000393: f2 0f 11 85 f0 fe ff ff                      movsd	qword ptr [rbp - 0x110], xmm0
0000039b: f2 0f 10 85 f0 fe ff ff                      movsd	xmm0, qword ptr [rbp - 0x110]
000003a3: 90                                           nop	
000003a4: 90                                           nop	
000003a5: 90                                           nop	
000003a6: 90                                           nop	
000003a7: 90                                           nop	
000003a8: 90                                           nop	
000003a9: 90                                           nop	
000003aa: 90                                           nop	
000003ab: 90                                           nop	
000003ac: 90                                           nop	
000003ad: 90                                           nop	
000003ae: 90                                           nop	
000003af: f2 0f 11 85 e8 fe ff ff                      movsd	qword ptr [rbp - 0x118], xmm0
000003b7: f2 0f 10 85 e8 fe ff ff                      movsd	xmm0, qword ptr [rbp - 0x118]
000003bf: f2 0f 11 85 e0 fe ff ff                      movsd	qword ptr [rbp - 0x120], xmm0
000003c7: 48 8d 05 11 01 00 00                         lea	rax, [rip + 0x111]
000003ce: 48 89 85 d8 fe ff ff                         mov	qword ptr [rbp - 0x128], rax
000003d5: 48 8b 85 e0 fe ff ff                         mov	rax, qword ptr [rbp - 0x120]
000003dc: 49 89 c0                                     mov	r8, rax
000003df: f2 0f 10 95 e0 fe ff ff                      movsd	xmm2, qword ptr [rbp - 0x120]
000003e7: 48 8b 85 f0 fe ff ff                         mov	rax, qword ptr [rbp - 0x110]
000003ee: 48 89 c2                                     mov	rdx, rax
000003f1: f2 0f 10 8d f0 fe ff ff                      movsd	xmm1, qword ptr [rbp - 0x110]
000003f9: 48 8b 85 d8 fe ff ff                         mov	rax, qword ptr [rbp - 0x128]
00000400: 48 89 c1                                     mov	rcx, rax
00000403: 90                                           nop	
00000404: 90                                           nop	
00000405: 90                                           nop	
00000406: 90                                           nop	
00000407: 90                                           nop	
00000408: 90                                           nop	
00000409: 90                                           nop	
0000040a: 90                                           nop	
0000040b: 90                                           nop	
0000040c: 90                                           nop	
0000040d: 90                                           nop	
0000040e: 90                                           nop	
0000040f: 48 89 85 d0 fe ff ff                         mov	qword ptr [rbp - 0x130], rax
00000416: 48 b8 00 00 00 00 00 00 00 00                movabs	rax, 0
00000420: 48 89 85 c8 fe ff ff                         mov	qword ptr [rbp - 0x138], rax
00000427: 48 8b 85 c8 fe ff ff                         mov	rax, qword ptr [rbp - 0x138]
0000042e: 48 81 c4 58 01 00 00                         add	rsp, 0x158
00000435: 5d                                           pop	rbp
00000436: c3                                           ret	
00000437: 00 00                                        add	byte ptr [rax], al
00000439: 00 00                                        add	byte ptr [rax], al
0000043b: 00 00                                        add	byte ptr [rax], al
0000043d: 10 40 00                                     adc	byte ptr [rax], al
00000440: 00 00                                        add	byte ptr [rax], al
00000442: 00 00                                        add	byte ptr [rax], al
00000444: 00 00                                        add	byte ptr [rax], al
00000446: 40 00 00                                     add	byte ptr [rax], al
00000449: 00 00                                        add	byte ptr [rax], al
0000044b: 00 00                                        add	byte ptr [rax], al
0000044d: 00 00                                        add	byte ptr [rax], al
0000044f: 73 71                                        jae	0x4c2
00000451: 72 74                                        jb	0x4c7
00000453: 28 25 2e 31 66 29                            sub	byte ptr [rip + 0x2966312e], ah
00000459: 20 3d 20 25 2e 31                            and	byte ptr [rip + 0x312e2520], bh
0000045f: 66 0a 00                                     or	al, byte ptr [rax]
00000462: 00 00                                        add	byte ptr [rax], al
00000464: 00 00                                        add	byte ptr [rax], al
00000466: 00 70 6f                                     add	byte ptr [rax + 0x6f], dh
00000469: 77 28                                        ja	0x493
0000046b: 25 2e 31 66 2c                               and	eax, 0x2c66312e
00000470: 20 25 2e 31 66 29                            and	byte ptr [rip + 0x2966312e], ah
00000476: 20 3d 20 25 2e 31                            and	byte ptr [rip + 0x312e2520], bh
0000047c: 66 0a 00                                     or	al, byte ptr [rax]
0000047f: 73 69                                        jae	0x4ea
00000481: 6e                                           outsb	dx, byte ptr [rsi]
00000482: 28 25 2e 31 66 29                            sub	byte ptr [rip + 0x2966312e], ah
00000488: 20 3d 20 25 2e 31                            and	byte ptr [rip + 0x312e2520], bh
0000048e: 66 0a 00                                     or	al, byte ptr [rax]
00000491: 00 00                                        add	byte ptr [rax], al
00000493: 00 00                                        add	byte ptr [rax], al
00000495: 00 00                                        add	byte ptr [rax], al
Code generation completed.
Running code...
Running code...
Found 14 function call(s) to fix
Fixed sqrt call at offset: 79
Fixed printf call at offset: d9
Fixed pow call at offset: fc
Fixed printf call at offset: 16e
Fixed sin call at offset: 189
Fixed printf call at offset: 1e9
Fixed cos call at offset: 204
Fixed printf call at offset: 264
Fixed tan call at offset: 27f
Fixed printf call at offset: 2df
Fixed abs call at offset: 31b
Fixed printf call at offset: 368
Fixed fabs call at offset: 3a3
Fixed printf call at offset: 403

Disassembling code after fix...
Code size: 1271 bytes
----------------------------------------
00000000: e8 01 00 00 00 	call 6
00000005: c3 	ret 
00000006: 55 	push rbp
00000007: 48 89 e5 	mov rbp, rsp
0000000a: 48 81 ec 58 01 00 00 	sub rsp, 0x158
00000011: f2 0f 10 05 1e 04 00 00 	movsd xmm0, qword ptr [rip + 0x41e]
00000019: f2 0f 11 85 f8 ff ff ff 	movsd qword ptr [rbp - 8], xmm0
00000021: f2 0f 10 85 f8 ff ff ff 	movsd xmm0, qword ptr [rbp - 8]
00000029: f2 0f 11 85 f0 ff ff ff 	movsd qword ptr [rbp - 0x10], xmm0
00000031: f2 0f 10 05 06 04 00 00 	movsd xmm0, qword ptr [rip + 0x406]
00000039: f2 0f 11 85 e8 ff ff ff 	movsd qword ptr [rbp - 0x18], xmm0
00000041: f2 0f 10 85 e8 ff ff ff 	movsd xmm0, qword ptr [rbp - 0x18]
00000049: f2 0f 11 85 e0 ff ff ff 	movsd qword ptr [rbp - 0x20], xmm0
00000051: f2 0f 10 05 ee 03 00 00 	movsd xmm0, qword ptr [rip + 0x3ee]
00000059: f2 0f 11 85 d8 ff ff ff 	movsd qword ptr [rbp - 0x28], xmm0
00000061: f2 0f 10 85 d8 ff ff ff 	movsd xmm0, qword ptr [rbp - 0x28]
00000069: f2 0f 11 85 d0 ff ff ff 	movsd qword ptr [rbp - 0x30], xmm0
00000071: f2 0f 10 85 f0 ff ff ff 	movsd xmm0, qword ptr [rbp - 0x10]
00000079: 48 b8 30 7a 4d 16 ff 7f 00 00 	movabs rax, 0x7fff164d7a30
00000083: ff d0 	call rax
00000085: f2 0f 11 85 c8 ff ff ff 	movsd qword ptr [rbp - 0x38], xmm0
0000008d: f2 0f 10 85 c8 ff ff ff 	movsd xmm0, qword ptr [rbp - 0x38]
00000095: f2 0f 11 85 c0 ff ff ff 	movsd qword ptr [rbp - 0x40], xmm0
0000009d: 48 8d 05 ab 03 00 00 	lea rax, [rip + 0x3ab]
000000a4: 48 89 85 b8 ff ff ff 	mov qword ptr [rbp - 0x48], rax
000000ab: 48 8b 85 c0 ff ff ff 	mov rax, qword ptr [rbp - 0x40]
000000b2: 49 89 c0 	mov r8, rax
000000b5: f2 0f 10 95 c0 ff ff ff 	movsd xmm2, qword ptr [rbp - 0x40]
000000bd: 48 8b 85 f0 ff ff ff 	mov rax, qword ptr [rbp - 0x10]
000000c4: 48 89 c2 	mov rdx, rax
000000c7: f2 0f 10 8d f0 ff ff ff 	movsd xmm1, qword ptr [rbp - 0x10]
000000cf: 48 8b 85 b8 ff ff ff 	mov rax, qword ptr [rbp - 0x48]
000000d6: 48 89 c1 	mov rcx, rax
000000d9: 48 b8 80 d2 4a 16 ff 7f 00 00 	movabs rax, 0x7fff164ad280
000000e3: ff d0 	call rax
000000e5: 48 89 85 b0 ff ff ff 	mov qword ptr [rbp - 0x50], rax
000000ec: f2 0f 10 8d e0 ff ff ff 	movsd xmm1, qword ptr [rbp - 0x20]
000000f4: f2 0f 10 85 f0 ff ff ff 	movsd xmm0, qword ptr [rbp - 0x10]
000000fc: 48 b8 00 5e 4d 16 ff 7f 00 00 	movabs rax, 0x7fff164d5e00
00000106: ff d0 	call rax
00000108: f2 0f 11 85 a8 ff ff ff 	movsd qword ptr [rbp - 0x58], xmm0
00000110: f2 0f 10 85 a8 ff ff ff 	movsd xmm0, qword ptr [rbp - 0x58]
00000118: f2 0f 11 85 a0 ff ff ff 	movsd qword ptr [rbp - 0x60], xmm0
00000120: 48 8d 05 40 03 00 00 	lea rax, [rip + 0x340]
00000127: 48 89 85 98 ff ff ff 	mov qword ptr [rbp - 0x68], rax
0000012e: 48 8b 85 a0 ff ff ff 	mov rax, qword ptr [rbp - 0x60]
00000135: 49 89 c1 	mov r9, rax
00000138: f2 0f 10 9d a0 ff ff ff 	movsd xmm3, qword ptr [rbp - 0x60]
00000140: 48 8b 85 e0 ff ff ff 	mov rax, qword ptr [rbp - 0x20]
00000147: 49 89 c0 	mov r8, rax
0000014a: f2 0f 10 95 e0 ff ff ff 	movsd xmm2, qword ptr [rbp - 0x20]
00000152: 48 8b 85 f0 ff ff ff 	mov rax, qword ptr [rbp - 0x10]
00000159: 48 89 c2 	mov rdx, rax
0000015c: f2 0f 10 8d f0 ff ff ff 	movsd xmm1, qword ptr [rbp - 0x10]
00000164: 48 8b 85 98 ff ff ff 	mov rax, qword ptr [rbp - 0x68]
0000016b: 48 89 c1 	mov rcx, rax
0000016e: 48 b8 80 d2 4a 16 ff 7f 00 00 	movabs rax, 0x7fff164ad280
00000178: ff d0 	call rax
0000017a: 48 89 85 90 ff ff ff 	mov qword ptr [rbp - 0x70], rax
00000181: f2 0f 10 85 d0 ff ff ff 	movsd xmm0, qword ptr [rbp - 0x30]
00000189: 48 b8 a0 24 4d 16 ff 7f 00 00 	movabs rax, 0x7fff164d24a0
00000193: ff d0 	call rax
00000195: f2 0f 11 85 88 ff ff ff 	movsd qword ptr [rbp - 0x78], xmm0
0000019d: f2 0f 10 85 88 ff ff ff 	movsd xmm0, qword ptr [rbp - 0x78]
000001a5: f2 0f 11 85 80 ff ff ff 	movsd qword ptr [rbp - 0x80], xmm0
000001ad: 48 8d 05 cb 02 00 00 	lea rax, [rip + 0x2cb]
000001b4: 48 89 85 78 ff ff ff 	mov qword ptr [rbp - 0x88], rax
000001bb: 48 8b 85 80 ff ff ff 	mov rax, qword ptr [rbp - 0x80]
000001c2: 49 89 c0 	mov r8, rax
000001c5: f2 0f 10 95 80 ff ff ff 	movsd xmm2, qword ptr [rbp - 0x80]
000001cd: 48 8b 85 d0 ff ff ff 	mov rax, qword ptr [rbp - 0x30]
000001d4: 48 89 c2 	mov rdx, rax
000001d7: f2 0f 10 8d d0 ff ff ff 	movsd xmm1, qword ptr [rbp - 0x30]
000001df: 48 8b 85 78 ff ff ff 	mov rax, qword ptr [rbp - 0x88]
000001e6: 48 89 c1 	mov rcx, rax
000001e9: 48 b8 80 d2 4a 16 ff 7f 00 00 	movabs rax, 0x7fff164ad280
000001f3: ff d0 	call rax
000001f5: 48 89 85 70 ff ff ff 	mov qword ptr [rbp - 0x90], rax
000001fc: f2 0f 10 85 d0 ff ff ff 	movsd xmm0, qword ptr [rbp - 0x30]
00000204: 48 b8 10 21 4d 16 ff 7f 00 00 	movabs rax, 0x7fff164d2110
0000020e: ff d0 	call rax
00000210: f2 0f 11 85 68 ff ff ff 	movsd qword ptr [rbp - 0x98], xmm0
00000218: f2 0f 10 85 68 ff ff ff 	movsd xmm0, qword ptr [rbp - 0x98]
00000220: f2 0f 11 85 60 ff ff ff 	movsd qword ptr [rbp - 0xa0], xmm0
00000228: 48 8d 05 68 02 00 00 	lea rax, [rip + 0x268]
0000022f: 48 89 85 58 ff ff ff 	mov qword ptr [rbp - 0xa8], rax
00000236: 48 8b 85 60 ff ff ff 	mov rax, qword ptr [rbp - 0xa0]
0000023d: 49 89 c0 	mov r8, rax
00000240: f2 0f 10 95 60 ff ff ff 	movsd xmm2, qword ptr [rbp - 0xa0]
00000248: 48 8b 85 d0 ff ff ff 	mov rax, qword ptr [rbp - 0x30]
0000024f: 48 89 c2 	mov rdx, rax
00000252: f2 0f 10 8d d0 ff ff ff 	movsd xmm1, qword ptr [rbp - 0x30]
0000025a: 48 8b 85 58 ff ff ff 	mov rax, qword ptr [rbp - 0xa8]
00000261: 48 89 c1 	mov rcx, rax
00000264: 48 b8 80 d2 4a 16 ff 7f 00 00 	movabs rax, 0x7fff164ad280
0000026e: ff d0 	call rax
00000270: 48 89 85 50 ff ff ff 	mov qword ptr [rbp - 0xb0], rax
00000277: f2 0f 10 85 d0 ff ff ff 	movsd xmm0, qword ptr [rbp - 0x30]
0000027f: 48 b8 50 7c 4d 16 ff 7f 00 00 	movabs rax, 0x7fff164d7c50
00000289: ff d0 	call rax
0000028b: f2 0f 11 85 48 ff ff ff 	movsd qword ptr [rbp - 0xb8], xmm0
00000293: f2 0f 10 85 48 ff ff ff 	movsd xmm0, qword ptr [rbp - 0xb8]
0000029b: f2 0f 11 85 40 ff ff ff 	movsd qword ptr [rbp - 0xc0], xmm0
000002a3: 48 8d 05 05 02 00 00 	lea rax, [rip + 0x205]
000002aa: 48 89 85 38 ff ff ff 	mov qword ptr [rbp - 0xc8], rax
000002b1: 48 8b 85 40 ff ff ff 	mov rax, qword ptr [rbp - 0xc0]
000002b8: 49 89 c0 	mov r8, rax
000002bb: f2 0f 10 95 40 ff ff ff 	movsd xmm2, qword ptr [rbp - 0xc0]
000002c3: 48 8b 85 d0 ff ff ff 	mov rax, qword ptr [rbp - 0x30]
000002ca: 48 89 c2 	mov rdx, rax
000002cd: f2 0f 10 8d d0 ff ff ff 	movsd xmm1, qword ptr [rbp - 0x30]
000002d5: 48 8b 85 38 ff ff ff 	mov rax, qword ptr [rbp - 0xc8]
000002dc: 48 89 c1 	mov rcx, rax
000002df: 48 b8 80 d2 4a 16 ff 7f 00 00 	movabs rax, 0x7fff164ad280
000002e9: ff d0 	call rax
000002eb: 48 89 85 30 ff ff ff 	mov qword ptr [rbp - 0xd0], rax
000002f2: 48 b8 fb ff ff ff ff ff ff ff 	movabs rax, 0xfffffffffffffffb
000002fc: 48 89 85 28 ff ff ff 	mov qword ptr [rbp - 0xd8], rax
00000303: 48 8b 85 28 ff ff ff 	mov rax, qword ptr [rbp - 0xd8]
0000030a: 48 89 85 20 ff ff ff 	mov qword ptr [rbp - 0xe0], rax
00000311: 48 8b 85 20 ff ff ff 	mov rax, qword ptr [rbp - 0xe0]
00000318: 48 89 c1 	mov rcx, rax
0000031b: 48 b8 80 f2 48 16 ff 7f 00 00 	movabs rax, 0x7fff1648f280
00000325: ff d0 	call rax
00000327: 48 89 85 18 ff ff ff 	mov qword ptr [rbp - 0xe8], rax
0000032e: 48 8b 85 18 ff ff ff 	mov rax, qword ptr [rbp - 0xe8]
00000335: 48 89 85 10 ff ff ff 	mov qword ptr [rbp - 0xf0], rax
0000033c: 48 8d 05 84 01 00 00 	lea rax, [rip + 0x184]
00000343: 48 89 85 08 ff ff ff 	mov qword ptr [rbp - 0xf8], rax
0000034a: 48 8b 85 10 ff ff ff 	mov rax, qword ptr [rbp - 0xf0]
00000351: 49 89 c0 	mov r8, rax
00000354: 48 8b 85 20 ff ff ff 	mov rax, qword ptr [rbp - 0xe0]
0000035b: 48 89 c2 	mov rdx, rax
0000035e: 48 8b 85 08 ff ff ff 	mov rax, qword ptr [rbp - 0xf8]
00000365: 48 89 c1 	mov rcx, rax
00000368: 48 b8 80 d2 4a 16 ff 7f 00 00 	movabs rax, 0x7fff164ad280
00000372: ff d0 	call rax
00000374: 48 89 85 00 ff ff ff 	mov qword ptr [rbp - 0x100], rax
0000037b: f2 0f 10 05 54 01 00 00 	movsd xmm0, qword ptr [rip + 0x154]
00000383: f2 0f 11 85 f8 fe ff ff 	movsd qword ptr [rbp - 0x108], xmm0
0000038b: f2 0f 10 85 f8 fe ff ff 	movsd xmm0, qword ptr [rbp - 0x108]
00000393: f2 0f 11 85 f0 fe ff ff 	movsd qword ptr [rbp - 0x110], xmm0
0000039b: f2 0f 10 85 f0 fe ff ff 	movsd xmm0, qword ptr [rbp - 0x110]
000003a3: 48 b8 70 42 4d 16 ff 7f 00 00 	movabs rax, 0x7fff164d4270
000003ad: ff d0 	call rax
000003af: f2 0f 11 85 e8 fe ff ff 	movsd qword ptr [rbp - 0x118], xmm0
000003b7: f2 0f 10 85 e8 fe ff ff 	movsd xmm0, qword ptr [rbp - 0x118]
000003bf: f2 0f 11 85 e0 fe ff ff 	movsd qword ptr [rbp - 0x120], xmm0
000003c7: 48 8d 05 11 01 00 00 	lea rax, [rip + 0x111]
000003ce: 48 89 85 d8 fe ff ff 	mov qword ptr [rbp - 0x128], rax
000003d5: 48 8b 85 e0 fe ff ff 	mov rax, qword ptr [rbp - 0x120]
000003dc: 49 89 c0 	mov r8, rax
000003df: f2 0f 10 95 e0 fe ff ff 	movsd xmm2, qword ptr [rbp - 0x120]
000003e7: 48 8b 85 f0 fe ff ff 	mov rax, qword ptr [rbp - 0x110]
000003ee: 48 89 c2 	mov rdx, rax
000003f1: f2 0f 10 8d f0 fe ff ff 	movsd xmm1, qword ptr [rbp - 0x110]
000003f9: 48 8b 85 d8 fe ff ff 	mov rax, qword ptr [rbp - 0x128]
00000400: 48 89 c1 	mov rcx, rax
00000403: 48 b8 80 d2 4a 16 ff 7f 00 00 	movabs rax, 0x7fff164ad280
0000040d: ff d0 	call rax
0000040f: 48 89 85 d0 fe ff ff 	mov qword ptr [rbp - 0x130], rax
00000416: 48 b8 00 00 00 00 00 00 00 00 	movabs rax, 0
00000420: 48 89 85 c8 fe ff ff 	mov qword ptr [rbp - 0x138], rax
00000427: 48 8b 85 c8 fe ff ff 	mov rax, qword ptr [rbp - 0x138]
0000042e: 48 81 c4 58 01 00 00 	add rsp, 0x158
00000435: 5d 	pop rbp
00000436: c3 	ret 
00000437: 00 00 	add byte ptr [rax], al
00000439: 00 00 	add byte ptr [rax], al
0000043b: 00 00 	add byte ptr [rax], al
0000043d: 10 40 00 	adc byte ptr [rax], al
00000440: 00 00 	add byte ptr [rax], al
00000442: 00 00 	add byte ptr [rax], al
00000444: 00 00 	add byte ptr [rax], al
00000446: 40 00 00 	add byte ptr [rax], al
00000449: 00 00 	add byte ptr [rax], al
0000044b: 00 00 	add byte ptr [rax], al
0000044d: 00 00 	add byte ptr [rax], al
0000044f: 73 71 	jae 0x4c2
00000451: 72 74 	jb 0x4c7
00000453: 28 25 2e 31 66 29 	sub byte ptr [rip + 0x2966312e], ah
00000459: 20 3d 20 25 2e 31 	and byte ptr [rip + 0x312e2520], bh
0000045f: 66 0a 00 	or al, byte ptr [rax]
00000462: 00 00 	add byte ptr [rax], al
00000464: 00 00 	add byte ptr [rax], al
00000466: 00 70 6f 	add byte ptr [rax + 0x6f], dh
00000469: 77 28 	ja 0x493
0000046b: 25 2e 31 66 2c 	and eax, 0x2c66312e
00000470: 20 25 2e 31 66 29 	and byte ptr [rip + 0x2966312e], ah
00000476: 20 3d 20 25 2e 31 	and byte ptr [rip + 0x312e2520], bh
0000047c: 66 0a 00 	or al, byte ptr [rax]
0000047f: 73 69 	jae 0x4ea
00000481: 6e 	outsb dx, byte ptr [rsi]
00000482: 28 25 2e 31 66 29 	sub byte ptr [rip + 0x2966312e], ah
00000488: 20 3d 20 25 2e 31 	and byte ptr [rip + 0x312e2520], bh
0000048e: 66 0a 00 	or al, byte ptr [rax]
00000491: 00 00 	add byte ptr [rax], al
00000493: 00 00 	add byte ptr [rax], al
00000495: 00 00 	add byte ptr [rax], al
----------------------------------------
Disassembly completed.
sqrt(4.0) = 2.0
pow(4.0, 2.0) = 16.0
sin(0.0) = 0.0
cos(0.0) = 1.0
tan(0.0) = 0.0
abs(-5) = 5
fabs(-3.14) = 3.14
Code execution completed.
main() return value: 0
Return value: 0
Code execution completed.
File closed.
