IronCScript v1.0.0
Platform: x86-64
Script: D:\MyCode\IronCScript\ironcscript-core\tests\scripts\09_stdlib/string/test_string_functions.c

Executing script...
[EXEC] JIT compiling script...
line 2:20 missing '{' at '"Hello"'
line 2:27 missing '}' at ';'
line 3:20 missing '{' at '"World"'
line 3:27 missing '}' at ';'
[DEBUG] visitProgram: found 1 statements
[DEBUG] visitProgram: processing statement
[DEBUG] visitStmt: entered
[DEBUG] visitStmt: found func_decl
[DEBUG] visitFunc_decl: entered
[DEBUG] visitFunc_decl: retType = int
[DEBUG] visitFunc_decl: name = main
[DEBUG] visitFunc_decl: found block
[DEBUG] visitStmt: entered
[DEBUG] visitStmt: found var_decl
[DEBUG] visitStmt: entered
[DEBUG] visitStmt: found var_decl
[DEBUG] visitStmt: entered
[DEBUG] visitStmt: found var_decl
[DEBUG] visitStmt: entered
[DEBUG] visitStmt: found var_decl
[DEBUG] visitStmt: entered
[DEBUG] visitStmt: found var_decl
[DEBUG] visitStmt: entered
[DEBUG] visitStmt: found var_decl
[DEBUG] visitStmt: entered
[DEBUG] visitStmt: found expression statement
[DEBUG] visitStmt: entered
[DEBUG] visitStmt: found expression statement
[DEBUG] visitStmt: entered
[DEBUG] visitStmt: found expression statement
[DEBUG] visitStmt: entered
[DEBUG] visitStmt: found expression statement
[DEBUG] visitStmt: entered
[DEBUG] visitStmt: found expression statement
[DEBUG] visitStmt: entered
[DEBUG] visitStmt: found expression statement
[DEBUG] visitStmt: entered
[DEBUG] visitStmt: found expression statement
[DEBUG] visitStmt: entered
[DEBUG] visitStmt: found var_decl
[DEBUG] visitStmt: entered
[DEBUG] visitStmt: found expression statement
[DEBUG] visitStmt: entered
[DEBUG] visitStmt: found expression statement
[DEBUG] visitStmt: entered
[DEBUG] visitStmt: found if_stmt
[DEBUG] visitStmt: entered
[DEBUG] visitStmt: found expression statement
[DEBUG] visitStmt: entered
[DEBUG] visitStmt: found expression statement
[DEBUG] visitStmt: entered
[DEBUG] visitStmt: found return statement
[DEBUG] visitFunc_decl: bodyResult has value: 1
[DEBUG] visitFunc_decl: body = 0x268983d4770
[DEBUG] visitFunc_decl: created funcDecl = 0x26898425290
[DEBUG] visitProgram: result has value: 1
[DEBUG] visitProgram: s is null: 0
[DEBUG] visitProgram: added statement to block
[DEBUG] visitProgram: block has 1 statements
[DEBUG] analyzeBlock: processing 1 statements
[DEBUG] analyzeBlock: processing statement type: N3cse20NFunctionDeclarationE
[DEBUG] analyzeFunctionDeclaration: main
[DEBUG] analyzeFunctionDeclaration: analyzing 0 arguments
[DEBUG] analyzeFunctionDeclaration: analyzing body
[DEBUG] analyzeBlock: processing 18 statements
[DEBUG] analyzeBlock: processing statement type: N3cse17NArrayDeclarationE
[DEBUG] analyzeBlock: processing statement type: N3cse17NArrayDeclarationE
[DEBUG] analyzeBlock: processing statement type: N3cse17NArrayDeclarationE
[DEBUG] analyzeBlock: processing statement type: N3cse19NPointerDeclarationE
[DEBUG] analyzeBlock: processing statement type: N3cse20NVariableDeclarationE
[DEBUG] inferType: array type, returning char*
[DEBUG] analyzeBlock: processing statement type: N3cse20NVariableDeclarationE
[DEBUG] inferType: array type, returning char*
[DEBUG] analyzeBlock: processing statement type: N3cse20NExpressionStatementE
[DEBUG] analyzeBlock: processing statement type: N3cse20NExpressionStatementE
[DEBUG] analyzeBlock: processing statement type: N3cse20NExpressionStatementE
[DEBUG] inferType: array type, returning char*
[DEBUG] inferType: array type, returning char*
[DEBUG] analyzeBlock: processing statement type: N3cse20NExpressionStatementE
[DEBUG] inferType: array type, returning char*
[DEBUG] analyzeBlock: processing statement type: N3cse20NExpressionStatementE
[DEBUG] inferType: array type, returning char*
[DEBUG] analyzeBlock: processing statement type: N3cse20NExpressionStatementE
[DEBUG] inferType: array type, returning char*
[DEBUG] inferType: array type, returning char*
[DEBUG] analyzeBlock: processing statement type: N3cse20NExpressionStatementE
[DEBUG] inferType: array type, returning char*
[DEBUG] analyzeBlock: processing statement type: N3cse20NVariableDeclarationE
[DEBUG] inferType: array type, returning char*
[DEBUG] inferType: array type, returning char*
[DEBUG] analyzeBlock: processing statement type: N3cse20NExpressionStatementE
[DEBUG] analyzeBlock: processing statement type: N3cse20NExpressionStatementE
[DEBUG] inferType: array type, returning char*
[DEBUG] analyzeBlock: processing statement type: N3cse12NIfStatementE
[DEBUG] analyzeBlock: processing 1 statements
[DEBUG] analyzeBlock: processing statement type: N3cse20NExpressionStatementE
[DEBUG] analyzeBlock: processing 1 statements
[DEBUG] analyzeBlock: processing statement type: N3cse20NExpressionStatementE
[DEBUG] analyzeBlock: processing statement type: N3cse16NReturnStatementE
[DEBUG] analyzeFunctionDeclaration: main
Generating code from intermediate representation...
Processing quad: FUNC (opcode: 20) int  main
Function main starts at offset 0
Processing quad: ARRAY (opcode: 34) 50 char str1
Local variable size for function main updated to: 50 bytes
Array str1 allocated at offset 8 with 50 elements of size 1
Processing quad: ASSIGN (opcode: 11) Hello  t0
Local variable size for function main updated to: 58 bytes
Allocating new local variable t0 (type: Pointer) at offset 58
Processing quad: ARRAY_STORE (opcode: 36) t0 0 str1
Processing quad: ARRAY (opcode: 34) 50 char str2
Local variable size for function main updated to: 108 bytes
Array str2 allocated at offset 66 with 50 elements of size 1
Processing quad: ASSIGN (opcode: 11) World  t1
Local variable size for function main updated to: 116 bytes
Allocating new local variable t1 (type: Pointer) at offset 116
Processing quad: ARRAY_STORE (opcode: 36) t1 0 str2
Processing quad: ARRAY (opcode: 34) 100 char str3
Local variable size for function main updated to: 216 bytes
Array str3 allocated at offset 124 with 100 elements of size 1
Processing quad: ASSIGN (opcode: 11) str1  param_0
[DEBUG] ASSIGN: result=param_0, arg1=str1, paramReg=1, xmmReg=-1
Processing quad: CALL (opcode: 15) strlen 1 t2
Local variable size for function main updated to: 224 bytes
Allocating new local variable t2 (type: Int) at offset 224
Processing quad: ASSIGN (opcode: 11) t2  len1
Local variable size for function main updated to: 232 bytes
Allocating new local variable len1 (type: Int) at offset 232
Processing quad: ASSIGN (opcode: 11) str2  param_0
[DEBUG] ASSIGN: result=param_0, arg1=str2, paramReg=1, xmmReg=-1
Processing quad: CALL (opcode: 15) strlen 1 t3
Local variable size for function main updated to: 240 bytes
Allocating new local variable t3 (type: Int) at offset 240
Processing quad: ASSIGN (opcode: 11) t3  len2
Local variable size for function main updated to: 248 bytes
Allocating new local variable len2 (type: Int) at offset 248
Processing quad: ASSIGN (opcode: 11) strlen(str1) = %d
  t4
Local variable size for function main updated to: 256 bytes
Allocating new local variable t4 (type: Pointer) at offset 256
Processing quad: ASSIGN (opcode: 11) t4  param_0
[DEBUG] ASSIGN: result=param_0, arg1=t4, paramReg=1, xmmReg=-1
Processing quad: ASSIGN (opcode: 11) len1  param_1
[DEBUG] ASSIGN: result=param_1, arg1=len1, paramReg=2, xmmReg=-1
Processing quad: CALL (opcode: 15) printf 2 t5
Local variable size for function main updated to: 264 bytes
Allocating new local variable t5 (type: Int) at offset 264
Processing quad: ASSIGN (opcode: 11) strlen(str2) = %d
  t6
Local variable size for function main updated to: 272 bytes
Allocating new local variable t6 (type: Pointer) at offset 272
Processing quad: ASSIGN (opcode: 11) t6  param_0
[DEBUG] ASSIGN: result=param_0, arg1=t6, paramReg=1, xmmReg=-1
Processing quad: ASSIGN (opcode: 11) len2  param_1
[DEBUG] ASSIGN: result=param_1, arg1=len2, paramReg=2, xmmReg=-1
Processing quad: CALL (opcode: 15) printf 2 t7
Local variable size for function main updated to: 280 bytes
Allocating new local variable t7 (type: Int) at offset 280
Processing quad: ASSIGN (opcode: 11) str3  param_0
[DEBUG] ASSIGN: result=param_0, arg1=str3, paramReg=1, xmmReg=-1
Processing quad: ASSIGN (opcode: 11) str1  param_1
[DEBUG] ASSIGN: result=param_1, arg1=str1, paramReg=2, xmmReg=-1
Processing quad: CALL (opcode: 15) strcpy 2 t8
Local variable size for function main updated to: 288 bytes
Allocating new local variable t8 (type: Int) at offset 288
Processing quad: ASSIGN (opcode: 11) strcpy(str3, str1) = %s
  t9
Local variable size for function main updated to: 296 bytes
Allocating new local variable t9 (type: Pointer) at offset 296
Processing quad: ASSIGN (opcode: 11) t9  param_0
[DEBUG] ASSIGN: result=param_0, arg1=t9, paramReg=1, xmmReg=-1
Processing quad: ASSIGN (opcode: 11) str3  param_1
[DEBUG] ASSIGN: result=param_1, arg1=str3, paramReg=2, xmmReg=-1
Processing quad: CALL (opcode: 15) printf 2 t10
Local variable size for function main updated to: 304 bytes
Allocating new local variable t10 (type: Int) at offset 304
Processing quad: ASSIGN (opcode: 11)    t11
Local variable size for function main updated to: 312 bytes
Allocating new local variable t11 (type: Pointer) at offset 312
Processing quad: ASSIGN (opcode: 11) str3  param_0
[DEBUG] ASSIGN: result=param_0, arg1=str3, paramReg=1, xmmReg=-1
Processing quad: ASSIGN (opcode: 11) t11  param_1
[DEBUG] ASSIGN: result=param_1, arg1=t11, paramReg=2, xmmReg=-1
Processing quad: CALL (opcode: 15) strcat 2 t12
Local variable size for function main updated to: 320 bytes
Allocating new local variable t12 (type: Int) at offset 320
Processing quad: ASSIGN (opcode: 11) str3  param_0
[DEBUG] ASSIGN: result=param_0, arg1=str3, paramReg=1, xmmReg=-1
Processing quad: ASSIGN (opcode: 11) str2  param_1
[DEBUG] ASSIGN: result=param_1, arg1=str2, paramReg=2, xmmReg=-1
Processing quad: CALL (opcode: 15) strcat 2 t13
Local variable size for function main updated to: 328 bytes
Allocating new local variable t13 (type: Int) at offset 328
Processing quad: ASSIGN (opcode: 11) strcat(str3, str2) = %s
  t14
Local variable size for function main updated to: 336 bytes
Allocating new local variable t14 (type: Pointer) at offset 336
Processing quad: ASSIGN (opcode: 11) t14  param_0
[DEBUG] ASSIGN: result=param_0, arg1=t14, paramReg=1, xmmReg=-1
Processing quad: ASSIGN (opcode: 11) str3  param_1
[DEBUG] ASSIGN: result=param_1, arg1=str3, paramReg=2, xmmReg=-1
Processing quad: CALL (opcode: 15) printf 2 t15
Local variable size for function main updated to: 344 bytes
Allocating new local variable t15 (type: Int) at offset 344
Processing quad: ASSIGN (opcode: 11) str1  param_0
[DEBUG] ASSIGN: result=param_0, arg1=str1, paramReg=1, xmmReg=-1
Processing quad: ASSIGN (opcode: 11) str2  param_1
[DEBUG] ASSIGN: result=param_1, arg1=str2, paramReg=2, xmmReg=-1
Processing quad: CALL (opcode: 15) strcmp 2 t16
Local variable size for function main updated to: 352 bytes
Allocating new local variable t16 (type: Int) at offset 352
Processing quad: ASSIGN (opcode: 11) t16  cmp
Local variable size for function main updated to: 360 bytes
Allocating new local variable cmp (type: Int) at offset 360
Processing quad: ASSIGN (opcode: 11) strcmp(str1, str2) = %d
  t17
Local variable size for function main updated to: 368 bytes
Allocating new local variable t17 (type: Pointer) at offset 368
Processing quad: ASSIGN (opcode: 11) t17  param_0
[DEBUG] ASSIGN: result=param_0, arg1=t17, paramReg=1, xmmReg=-1
Processing quad: ASSIGN (opcode: 11) cmp  param_1
[DEBUG] ASSIGN: result=param_1, arg1=cmp, paramReg=2, xmmReg=-1
Processing quad: CALL (opcode: 15) printf 2 t18
Local variable size for function main updated to: 376 bytes
Allocating new local variable t18 (type: Int) at offset 376
Processing quad: ASSIGN (opcode: 11) World  t19
Local variable size for function main updated to: 384 bytes
Allocating new local variable t19 (type: Pointer) at offset 384
Processing quad: ASSIGN (opcode: 11) str3  param_0
[DEBUG] ASSIGN: result=param_0, arg1=str3, paramReg=1, xmmReg=-1
Processing quad: ASSIGN (opcode: 11) t19  param_1
[DEBUG] ASSIGN: result=param_1, arg1=t19, paramReg=2, xmmReg=-1
Processing quad: CALL (opcode: 15) strstr 2 t20
Local variable size for function main updated to: 392 bytes
Allocating new local variable t20 (type: Int) at offset 392
Processing quad: ASSIGN (opcode: 11) t20  result
Local variable size for function main updated to: 400 bytes
Allocating new local variable result (type: Int) at offset 400
Processing quad: JMPF (opcode: 13) result  t21
Processing quad: ASSIGN (opcode: 11) strstr(str3, "World") = %s
  t23
Local variable size for function main updated to: 408 bytes
Allocating new local variable t23 (type: Pointer) at offset 408
Processing quad: ASSIGN (opcode: 11) t23  param_0
[DEBUG] ASSIGN: result=param_0, arg1=t23, paramReg=1, xmmReg=-1
Processing quad: ASSIGN (opcode: 11) result  param_1
[DEBUG] ASSIGN: result=param_1, arg1=result, paramReg=2, xmmReg=-1
Processing quad: CALL (opcode: 15) printf 2 t24
Local variable size for function main updated to: 416 bytes
Allocating new local variable t24 (type: Int) at offset 416
Processing quad: JMP (opcode: 12)   t22
Processing quad: LABEL (opcode: 19)   t21
Created label t21 at offset 731
Created label: t21 at offset 731
Processing quad: ASSIGN (opcode: 11) strstr(str3, "World") = not found
  t25
Local variable size for function main updated to: 424 bytes
Allocating new local variable t25 (type: Pointer) at offset 424
Processing quad: ASSIGN (opcode: 11) t25  param_0
[DEBUG] ASSIGN: result=param_0, arg1=t25, paramReg=1, xmmReg=-1
Processing quad: CALL (opcode: 15) printf 1 t26
Local variable size for function main updated to: 432 bytes
Allocating new local variable t26 (type: Int) at offset 432
Processing quad: LABEL (opcode: 19)   t22
Created label t22 at offset 773
Created label: t22 at offset 773
Processing quad: RET (opcode: 17)   0
Processing quad: ENDFUNC (opcode: 21)   main
Updated stack allocation for function main to 472 bytes
Updated stack deallocation for function main at position 783 to 472 bytes
[updateFunctionCallOffsets] Resolving strlen -> 0x7fff164db7b0
[updateFunctionCallOffsets] Replaced NOP with call to strlen at offset 95
[updateFunctionCallOffsets] Resolving strlen -> 0x7fff164db7b0
[updateFunctionCallOffsets] Replaced NOP with call to strlen at offset 135
[updateFunctionCallOffsets] Resolving printf -> 0x7ff6be637cec
[updateFunctionCallOffsets] Replaced NOP with call to printf at offset 197
[updateFunctionCallOffsets] Resolving printf -> 0x7ff6be637cec
[updateFunctionCallOffsets] Replaced NOP with call to printf at offset 247
[updateFunctionCallOffsets] Resolving strcpy -> 0x7fff164daf70
[updateFunctionCallOffsets] Replaced NOP with call to strcpy at offset 285
[updateFunctionCallOffsets] Resolving printf -> 0x7ff6be637cec
[updateFunctionCallOffsets] Replaced NOP with call to printf at offset 337
[updateFunctionCallOffsets] Resolving strcat -> 0x7fff164daeb0
[updateFunctionCallOffsets] Replaced NOP with call to strcat at offset 389
[updateFunctionCallOffsets] Resolving strcat -> 0x7fff164daeb0
[updateFunctionCallOffsets] Replaced NOP with call to strcat at offset 427
[updateFunctionCallOffsets] Resolving printf -> 0x7ff6be637cec
[updateFunctionCallOffsets] Replaced NOP with call to printf at offset 479
[updateFunctionCallOffsets] Resolving strcmp -> 0x7fff164db6e0
[updateFunctionCallOffsets] Replaced NOP with call to strcmp at offset 517
[updateFunctionCallOffsets] Resolving printf -> 0x7ff6be637cec
[updateFunctionCallOffsets] Replaced NOP with call to printf at offset 579
[updateFunctionCallOffsets] Resolving strstr -> 0x7fff164c2790
[updateFunctionCallOffsets] Replaced NOP with call to strstr at offset 631
[updateFunctionCallOffsets] Resolving printf -> 0x7ff6be637cec
[updateFunctionCallOffsets] Replaced NOP with call to printf at offset 708
[updateFunctionCallOffsets] Resolving printf -> 0x7ff6be637cec
[updateFunctionCallOffsets] Replaced NOP with call to printf at offset 755
Code generation completed. Total code size: 792 bytes
Running code...
Allocated executable memory at: 0x26897ee0000
Code copied to executable memory successfully.
Found 14 function call(s) to fix
Fixed strlen call at offset: 5f
Fixed strlen call at offset: 87
Fixed printf call at offset: c5
Fixed printf call at offset: f7
Fixed strcpy call at offset: 11d
Fixed printf call at offset: 151
Fixed strcat call at offset: 185
Fixed strcat call at offset: 1ab
Fixed printf call at offset: 1df
Fixed strcmp call at offset: 205
Fixed printf call at offset: 243
Fixed strstr call at offset: 277
Fixed printf call at offset: 2c4
Fixed printf call at offset: 2f3

Disassembling code after fix...
Code size: 792 bytes
----------------------------------------
Initializing Capstone disassembler...
Architecture: 4, Mode: 8
Capstone initialized successfully. Handle: 2648253683136
Disassembling 139 instructions...
00000000: 55 	push rbp
00000001: 48 89 e5 	mov rbp, rsp
00000004: 48 81 ec d8 01 00 00 	sub rsp, 0x1d8
0000000b: 48 8d 05 00 00 00 00 	lea rax, [rip]
00000012: 48 89 85 c6 ff ff ff 	mov qword ptr [rbp - 0x3a], rax
00000019: 8b 85 c6 ff ff ff 	mov eax, dword ptr [rbp - 0x3a]
0000001f: 48 b9 00 00 00 00 00 00 00 00 	movabs rcx, 0
00000029: 89 84 0d c7 ff ff ff 	mov dword ptr [rbp + rcx - 0x39], eax
00000030: 48 8d 05 00 00 00 00 	lea rax, [rip]
00000037: 48 89 85 8c ff ff ff 	mov qword ptr [rbp - 0x74], rax
0000003e: 8b 85 8c ff ff ff 	mov eax, dword ptr [rbp - 0x74]
00000044: 48 b9 00 00 00 00 00 00 00 00 	movabs rcx, 0
0000004e: 89 84 0d 8d ff ff ff 	mov dword ptr [rbp + rcx - 0x73], eax
00000055: 48 8d 85 f8 ff ff ff 	lea rax, [rbp - 8]
0000005c: 48 89 c1 	mov rcx, rax
0000005f: 48 b8 b0 b7 4d 16 ff 7f 00 00 	movabs rax, 0x7fff164db7b0
00000069: ff d0 	call rax
0000006b: 89 85 20 ff ff ff 	mov dword ptr [rbp - 0xe0], eax
00000071: 8b 85 20 ff ff ff 	mov eax, dword ptr [rbp - 0xe0]
00000077: 89 85 18 ff ff ff 	mov dword ptr [rbp - 0xe8], eax
0000007d: 48 8d 85 be ff ff ff 	lea rax, [rbp - 0x42]
00000084: 48 89 c1 	mov rcx, rax
00000087: 48 b8 b0 b7 4d 16 ff 7f 00 00 	movabs rax, 0x7fff164db7b0
00000091: ff d0 	call rax
00000093: 89 85 10 ff ff ff 	mov dword ptr [rbp - 0xf0], eax
00000099: 8b 85 10 ff ff ff 	mov eax, dword ptr [rbp - 0xf0]
0000009f: 89 85 08 ff ff ff 	mov dword ptr [rbp - 0xf8], eax
000000a5: 48 8d 05 00 00 00 00 	lea rax, [rip]
000000ac: 48 89 85 00 ff ff ff 	mov qword ptr [rbp - 0x100], rax
000000b3: 48 8b 85 00 ff ff ff 	mov rax, qword ptr [rbp - 0x100]
000000ba: 48 89 c1 	mov rcx, rax
000000bd: 8b 85 18 ff ff ff 	mov eax, dword ptr [rbp - 0xe8]
000000c3: 89 c2 	mov edx, eax
000000c5: 48 b8 ec 7c 63 be f6 7f 00 00 	movabs rax, 0x7ff6be637cec
000000cf: ff d0 	call rax
000000d1: 89 85 f8 fe ff ff 	mov dword ptr [rbp - 0x108], eax
000000d7: 48 8d 05 00 00 00 00 	lea rax, [rip]
000000de: 48 89 85 f0 fe ff ff 	mov qword ptr [rbp - 0x110], rax
000000e5: 48 8b 85 f0 fe ff ff 	mov rax, qword ptr [rbp - 0x110]
000000ec: 48 89 c1 	mov rcx, rax
000000ef: 8b 85 08 ff ff ff 	mov eax, dword ptr [rbp - 0xf8]
000000f5: 89 c2 	mov edx, eax
000000f7: 48 b8 ec 7c 63 be f6 7f 00 00 	movabs rax, 0x7ff6be637cec
00000101: ff d0 	call rax
00000103: 89 85 e8 fe ff ff 	mov dword ptr [rbp - 0x118], eax
00000109: 48 8d 85 84 ff ff ff 	lea rax, [rbp - 0x7c]
00000110: 48 89 c1 	mov rcx, rax
00000113: 48 8d 85 f8 ff ff ff 	lea rax, [rbp - 8]
0000011a: 48 89 c2 	mov rdx, rax
0000011d: 48 b8 70 af 4d 16 ff 7f 00 00 	movabs rax, 0x7fff164daf70
00000127: ff d0 	call rax
00000129: 89 85 e0 fe ff ff 	mov dword ptr [rbp - 0x120], eax
0000012f: 48 8d 05 00 00 00 00 	lea rax, [rip]
00000136: 48 89 85 d8 fe ff ff 	mov qword ptr [rbp - 0x128], rax
0000013d: 48 8b 85 d8 fe ff ff 	mov rax, qword ptr [rbp - 0x128]
00000144: 48 89 c1 	mov rcx, rax
00000147: 48 8d 85 84 ff ff ff 	lea rax, [rbp - 0x7c]
0000014e: 48 89 c2 	mov rdx, rax
00000151: 48 b8 ec 7c 63 be f6 7f 00 00 	movabs rax, 0x7ff6be637cec
0000015b: ff d0 	call rax
0000015d: 89 85 d0 fe ff ff 	mov dword ptr [rbp - 0x130], eax
00000163: 48 8d 05 00 00 00 00 	lea rax, [rip]
0000016a: 48 89 85 c8 fe ff ff 	mov qword ptr [rbp - 0x138], rax
00000171: 48 8d 85 84 ff ff ff 	lea rax, [rbp - 0x7c]
00000178: 48 89 c1 	mov rcx, rax
0000017b: 48 8b 85 c8 fe ff ff 	mov rax, qword ptr [rbp - 0x138]
00000182: 48 89 c2 	mov rdx, rax
00000185: 48 b8 b0 ae 4d 16 ff 7f 00 00 	movabs rax, 0x7fff164daeb0
0000018f: ff d0 	call rax
00000191: 89 85 c0 fe ff ff 	mov dword ptr [rbp - 0x140], eax
00000197: 48 8d 85 84 ff ff ff 	lea rax, [rbp - 0x7c]
0000019e: 48 89 c1 	mov rcx, rax
000001a1: 48 8d 85 be ff ff ff 	lea rax, [rbp - 0x42]
000001a8: 48 89 c2 	mov rdx, rax
000001ab: 48 b8 b0 ae 4d 16 ff 7f 00 00 	movabs rax, 0x7fff164daeb0
000001b5: ff d0 	call rax
000001b7: 89 85 b8 fe ff ff 	mov dword ptr [rbp - 0x148], eax
000001bd: 48 8d 05 00 00 00 00 	lea rax, [rip]
000001c4: 48 89 85 b0 fe ff ff 	mov qword ptr [rbp - 0x150], rax
000001cb: 48 8b 85 b0 fe ff ff 	mov rax, qword ptr [rbp - 0x150]
000001d2: 48 89 c1 	mov rcx, rax
000001d5: 48 8d 85 84 ff ff ff 	lea rax, [rbp - 0x7c]
000001dc: 48 89 c2 	mov rdx, rax
000001df: 48 b8 ec 7c 63 be f6 7f 00 00 	movabs rax, 0x7ff6be637cec
000001e9: ff d0 	call rax
000001eb: 89 85 a8 fe ff ff 	mov dword ptr [rbp - 0x158], eax
000001f1: 48 8d 85 f8 ff ff ff 	lea rax, [rbp - 8]
000001f8: 48 89 c1 	mov rcx, rax
000001fb: 48 8d 85 be ff ff ff 	lea rax, [rbp - 0x42]
00000202: 48 89 c2 	mov rdx, rax
00000205: 48 b8 e0 b6 4d 16 ff 7f 00 00 	movabs rax, 0x7fff164db6e0
0000020f: ff d0 	call rax
00000211: 89 85 a0 fe ff ff 	mov dword ptr [rbp - 0x160], eax
00000217: 8b 85 a0 fe ff ff 	mov eax, dword ptr [rbp - 0x160]
0000021d: 89 85 98 fe ff ff 	mov dword ptr [rbp - 0x168], eax
00000223: 48 8d 05 00 00 00 00 	lea rax, [rip]
0000022a: 48 89 85 90 fe ff ff 	mov qword ptr [rbp - 0x170], rax
00000231: 48 8b 85 90 fe ff ff 	mov rax, qword ptr [rbp - 0x170]
00000238: 48 89 c1 	mov rcx, rax
0000023b: 8b 85 98 fe ff ff 	mov eax, dword ptr [rbp - 0x168]
00000241: 89 c2 	mov edx, eax
00000243: 48 b8 ec 7c 63 be f6 7f 00 00 	movabs rax, 0x7ff6be637cec
0000024d: ff d0 	call rax
0000024f: 89 85 88 fe ff ff 	mov dword ptr [rbp - 0x178], eax
00000255: 48 8d 05 00 00 00 00 	lea rax, [rip]
0000025c: 48 89 85 80 fe ff ff 	mov qword ptr [rbp - 0x180], rax
00000263: 48 8d 85 84 ff ff ff 	lea rax, [rbp - 0x7c]
0000026a: 48 89 c1 	mov rcx, rax
0000026d: 48 8b 85 80 fe ff ff 	mov rax, qword ptr [rbp - 0x180]
00000274: 48 89 c2 	mov rdx, rax
00000277: 48 b8 90 27 4c 16 ff 7f 00 00 	movabs rax, 0x7fff164c2790
00000281: ff d0 	call rax
00000283: 89 85 78 fe ff ff 	mov dword ptr [rbp - 0x188], eax
00000289: 8b 85 78 fe ff ff 	mov eax, dword ptr [rbp - 0x188]
0000028f: 89 85 70 fe ff ff 	mov dword ptr [rbp - 0x190], eax
00000295: 8b 85 70 fe ff ff 	mov eax, dword ptr [rbp - 0x190]
0000029b: 48 85 c0 	test rax, rax
0000029e: 0f 84 37 00 00 00 	je 0x2db
000002a4: 48 8d 05 00 00 00 00 	lea rax, [rip]
000002ab: 48 89 85 68 fe ff ff 	mov qword ptr [rbp - 0x198], rax
000002b2: 48 8b 85 68 fe ff ff 	mov rax, qword ptr [rbp - 0x198]
000002b9: 48 89 c1 	mov rcx, rax
000002bc: 8b 85 70 fe ff ff 	mov eax, dword ptr [rbp - 0x190]
000002c2: 89 c2 	mov edx, eax
000002c4: 48 b8 ec 7c 63 be f6 7f 00 00 	movabs rax, 0x7ff6be637cec
000002ce: ff d0 	call rax
000002d0: 89 85 60 fe ff ff 	mov dword ptr [rbp - 0x1a0], eax
000002d6: e9 2a 00 00 00 	jmp 0x305
000002db: 48 8d 05 00 00 00 00 	lea rax, [rip]
000002e2: 48 89 85 58 fe ff ff 	mov qword ptr [rbp - 0x1a8], rax
000002e9: 48 8b 85 58 fe ff ff 	mov rax, qword ptr [rbp - 0x1a8]
000002f0: 48 89 c1 	mov rcx, rax
000002f3: 48 b8 ec 7c 63 be f6 7f 00 00 	movabs rax, 0x7ff6be637cec
000002fd: ff d0 	call rax
000002ff: 89 85 50 fe ff ff 	mov dword ptr [rbp - 0x1b0], eax
00000305: 48 b8 00 00 00 00 00 00 00 00 	movabs rax, 0
0000030f: 48 81 c4 d8 01 00 00 	add rsp, 0x1d8
00000316: 5d 	pop rbp
00000317: c3 	ret 
Closing Capstone handle...
Capstone handle closed.
----------------------------------------
Disassembly completed.
Attempting to execute JIT code...
Executable memory address: 0x26897ee0000
Found main function at offset: 0
JIT function pointer: 0x26897ee0000
HēģHēģ­■  Hŗģ­■  Hē┴ŗģ   ē┬HĖņ|cŠ÷Hēģž■  Hŗģž■  Hē┴HŹģä   Hē┬HĖņ|cŠ÷Hēģ░■  Hŗģ░■  Hē┴HŹģä   Hē┬HĖņ|cŠ÷HēģÉ■  HŗģÉ■  Hē┴ŗģś■  ē┬HĖņ|cŠ÷HēģX■  HŗģX■  Hē┴HĖņ|cŠ÷Code execution completed.
main() return value: 0
Freeing executable memory...
Memory freed successfully.

Script executed successfully.
Return value: 0
SymbolTable destructor called. Scope stack size: 1
Deleting scope: 0x26898324e30
SymbolTable destruction completed.
